(lp0
V600051
p1
aV600209
p2
aV600212
p3
aV600256
p4
aV600576
p5
aV600603
p6
aV600614
p7
aV600620
p8
aV600622
p9
aV600624
p10
aV600647
p11
aV600656
p12
aV600687
p13
aV600701
p14
aV600730
p15
aV600770
p16
aV600777
p17
aV600800
p18
aV600805
p19
aV600811
p20
aV600846
p21
aV600892
p22
aV000008
p23
aV000301
p24
aV000576
p25
aV000632
p26
aV000633
p27
aV000652
p28
aV000701
p29
aV000839
p30
aV000881
p31
aV000909
p32
aV600012
p33
aV600020
p34
aV600033
p35
aV600035
p36
aV600106
p37
aV600269
p38
aV600350
p39
aV600368
p40
aV600377
p41
aV600548
p42
aV601107
p43
aV601188
p44
aV601518
p45
aV000429
p46
aV000548
p47
aV000828
p48
aV000886
p49
aV000900
p50
aV000916
p51
aV600061
p52
aV600063
p53
aV600527
p54
aV600810
p55
aV600889
p56
aV601113
p57
aV601233
p58
aV000420
p59
aV000584
p60
aV000615
p61
aV000677
p62
aV000687
p63
aV000703
p64
aV000782
p65
aV000936
p66
aV000949
p67
aV000976
p68
aV002015
p69
aV002064
p70
aV002080
p71
aV002172
p72
aV002206
p73
aV002254
p74
aV002427
p75
aV002493
p76
aV300180
p77
aV600031
p78
aV600114
p79
aV600149
p80
aV600169
p81
aV600218
p82
aV600243
p83
aV600262
p84
aV600320
p85
aV600346
p86
aV600388
p87
aV600421
p88
aV600435
p89
aV600475
p90
aV600499
p91
aV600520
p92
aV600526
p93
aV600579
p94
aV600582
p95
aV600592
p96
aV600619
p97
aV600710
p98
aV600761
p99
aV600765
p100
aV600806
p101
aV600815
p102
aV600841
p103
aV600855
p104
aV600860
p105
aV600984
p106
aV601002
p107
aV601038
p108
aV601100
p109
aV601106
p110
aV601177
p111
aV601218
p112
aV601226
p113
aV601369
p114
aV601608
p115
aV601717
p116
aV601798
p117
aV603011
p118
aV603012
p119
aV603088
p120
aV603169
p121
aV603308
p122
aV603315
p123
aV603318
p124
aV603338
p125
aV603355
p126
aV603698
p127
aV603699
p128
aV603789
p129
aV000039
p130
aV000157
p131
aV000404
p132
aV000410
p133
aV000425
p134
aV000519
p135
aV000528
p136
aV000530
p137
aV000551
p138
aV000570
p139
aV000595
p140
aV000617
p141
aV000678
p142
aV000680
p143
aV000777
p144
aV000811
p145
aV000816
p146
aV000821
p147
aV000837
p148
aV000852
p149
aV000856
p150
aV000880
p151
aV000903
p152
aV000923
p153
aV000925
p154
aV002006
p155
aV002009
p156
aV002011
p157
aV002026
p158
aV002046
p159
aV002050
p160
aV002097
p161
aV002101
p162
aV002122
p163
aV002131
p164
aV002147
p165
aV002150
p166
aV002158
p167
aV002204
p168
aV002209
p169
aV002248
p170
aV002255
p171
aV002270
p172
aV002272
p173
aV002278
p174
aV002282
p175
aV002328
p176
aV002337
p177
aV002342
p178
aV002347
p179
aV002353
p180
aV002366
p181
aV002413
p182
aV002418
p183
aV002430
p184
aV002435
p185
aV002438
p186
aV002444
p187
aV002445
p188
aV002459
p189
aV002472
p190
aV002480
p191
aV002483
p192
aV002490
p193
aV002499
p194
aV002509
p195
aV002514
p196
aV002520
p197
aV002523
p198
aV002526
p199
aV002529
p200
aV002530
p201
aV002532
p202
aV002534
p203
aV002535
p204
aV002537
p205
aV002552
p206
aV002553
p207
aV002559
p208
aV002564
p209
aV002591
p210
aV002595
p211
aV002598
p212
aV002611
p213
aV002613
p214
aV002621
p215
aV002630
p216
aV002633
p217
aV002639
p218
aV002645
p219
aV002651
p220
aV002667
p221
aV002680
p222
aV002685
p223
aV002686
p224
aV002690
p225
aV002691
p226
aV002698
p227
aV002747
p228
aV300023
p229
aV300024
p230
aV300035
p231
aV300056
p232
aV300090
p233
aV300091
p234
aV300092
p235
aV300095
p236
aV300103
p237
aV300116
p238
aV300126
p239
aV300145
p240
aV300151
p241
aV300152
p242
aV300159
p243
aV300161
p244
aV300173
p245
aV300185
p246
aV300193
p247
aV300195
p248
aV300201
p249
aV300202
p250
aV300210
p251
aV300228
p252
aV300249
p253
aV300257
p254
aV300260
p255
aV300263
p256
aV300266
p257
aV300272
p258
aV300276
p259
aV300278
p260
aV300280
p261
aV300281
p262
aV300293
p263
aV300307
p264
aV300308
p265
aV300309
p266
aV300316
p267
aV300334
p268
aV300358
p269
aV300362
p270
aV300368
p271
aV300382
p272
aV300385
p273
aV300391
p274
aV300400
p275
aV300402
p276
aV300411
p277
aV300415
p278
aV300420
p279
aV300421
p280
aV300425
p281
aV300427
p282
aV300434
p283
aV300435
p284
aV300441
p285
aV300442
p286
aV300443
p287
aV600062
p288
aV600079
p289
aV600080
p290
aV600085
p291
aV600129
p292
aV600161
p293
aV600196
p294
aV600200
p295
aV600201
p296
aV600211
p297
aV600216
p298
aV600222
p299
aV600252
p300
aV600267
p301
aV600276
p302
aV600285
p303
aV600329
p304
aV600332
p305
aV600351
p306
aV600380
p307
aV600420
p308
aV600422
p309
aV600436
p310
aV600466
p311
aV600479
p312
aV600488
p313
aV600513
p314
aV600518
p315
aV600521
p316
aV600530
p317
aV600535
p318
aV600557
p319
aV600566
p320
aV600572
p321
aV600594
p322
aV600613
p323
aV600645
p324
aV600664
p325
aV600666
p326
aV600671
p327
aV600750
p328
aV600771
p329
aV600781
p330
aV600789
p331
aV600812
p332
aV600829
p333
aV600867
p334
aV600976
p335
aV600993
p336
aV603168
p337
aV603222
p338
aV603456
p339
aV603567
p340
aV603998
p341
aV000004
p342
aV000078
p343
aV000153
p344
aV000403
p345
aV000423
p346
aV000513
p347
aV000518
p348
aV000538
p349
aV000566
p350
aV000590
p351
aV000597
p352
aV000606
p353
aV000623
p354
aV000650
p355
aV000661
p356
aV000739
p357
aV000756
p358
aV000766
p359
aV000788
p360
aV000790
p361
aV000908
p362
aV000915
p363
aV000919
p364
aV000952
p365
aV000963
p366
aV000989
p367
aV000999
p368
aV002001
p369
aV002007
p370
aV002019
p371
aV002020
p372
aV002022
p373
aV002030
p374
aV002038
p375
aV002099
p376
aV002107
p377
aV002118
p378
aV002166
p379
aV002198
p380
aV002219
p381
aV002252
p382
aV002262
p383
aV002275
p384
aV002287
p385
aV002294
p386
aV002317
p387
aV002332
p388
aV002349
p389
aV002365
p390
aV002370
p391
aV002390
p392
aV002393
p393
aV002399
p394
aV002412
p395
aV002422
p396
aV002424
p397
aV002433
p398
aV002437
p399
aV002550
p400
aV002566
p401
aV002603
p402
aV002644
p403
aV002653
p404
aV002675
p405
aV002688
p406
aV002693
p407
aV002727
p408
aV002728
p409
aV002737
p410
aV002750
p411
aV300006
p412
aV300009
p413
aV300016
p414
aV300026
p415
aV300039
p416
aV300049
p417
aV300086
p418
aV300110
p419
aV300119
p420
aV300122
p421
aV300142
p422
aV300147
p423
aV300158
p424
aV300181
p425
aV300194
p426
aV300199
p427
aV300204
p428
aV300233
p429
aV300239
p430
aV300254
p431
aV300255
p432
aV300267
p433
aV300289
p434
aV300294
p435
aV300357
p436
aV300363
p437
aV300406
p438
aV300436
p439
aV300439
p440
aV600028
p441
aV600387
p442
aV600583
p443
aV600688
p444
aV600759
p445
aV600871
p446
aV601808
p447
aV601857
p448
aV603003
p449
aV000059
p450
aV000096
p451
aV000159
p452
aV000554
p453
aV000637
p454
aV000819
p455
aV002207
p456
aV002221
p457
aV002554
p458
aV002629
p459
aV300084
p460
aV300157
p461
aV300164
p462
aV300191
p463
aV600176
p464
aV600184
p465
aV600293
p466
aV600529
p467
aV600552
p468
aV600586
p469
aV600629
p470
aV600819
p471
aV600876
p472
aV601636
p473
aV603021
p474
aV603601
p475
aV000012
p476
aV002571
p477
aV002623
p478
aV300093
p479
aV300160
p480
aV300196
p481
aV300395
p482
aV600366
p483
aV600651
p484
aV600848
p485
aV601222
p486
aV601567
p487
aV603100
p488
aV000676
p489
aV000980
p490
aV000988
p491
aV002008
p492
aV002058
p493
aV002121
p494
aV002175
p495
aV002197
p496
aV002214
p497
aV002236
p498
aV002338
p499
aV002356
p500
aV002414
p501
aV002415
p502
aV002518
p503
aV002527
p504
aV002658
p505
aV300007
p506
aV300012
p507
aV300066
p508
aV300097
p509
aV300099
p510
aV300105
p511
aV300112
p512
aV300124
p513
aV300137
p514
aV300165
p515
aV300203
p516
aV300259
p517
aV300286
p518
aV300306
p519
aV300338
p520
aV300349
p521
aV300354
p522
aV300360
p523
aV300370
p524
aV300371
p525
aV300410
p526
aV300416
p527
aV300417
p528
aV300430
p529
aV300445
p530
aV600004
p531
aV600009
p532
aV600017
p533
aV600018
p534
aV600026
p535
aV600029
p536
aV600057
p537
aV600115
p538
aV600119
p539
aV600125
p540
aV600180
p541
aV600190
p542
aV600221
p543
aV600242
p544
aV600270
p545
aV600279
p546
aV600317
p547
aV600386
p548
aV600428
p549
aV600495
p550
aV600561
p551
aV600575
p552
aV600611
p553
aV600650
p554
aV600662
p555
aV600692
p556
aV600708
p557
aV600717
p558
aV600751
p559
aV600787
p560
aV600794
p561
aV600798
p562
aV600834
p563
aV600835
p564
aV600894
p565
aV600896
p566
aV600897
p567
aV600967
p568
aV601000
p569
aV601006
p570
aV601008
p571
aV601018
p572
aV601021
p573
aV601111
p574
aV601313
p575
aV601333
p576
aV601766
p577
aV601866
p578
aV601872
p579
aV601880
p580
aV601919
p581
aV603111
p582
aV603128
p583
aV603167
p584
aV603611
p585
aV000022
p586
aV000088
p587
aV000089
p588
aV000099
p589
aV000421
p590
aV000507
p591
aV000520
p592
aV000582
p593
aV000905
p594
aV000920
p595
aV000996
p596
aV002040
p597
aV002183
p598
aV002210
p599
aV002245
p600
aV002320
p601
aV002357
p602
aV002367
p603
aV002448
p604
aV002492
p605
aV002592
p606
aV002627
p607
aV002682
p608
aV002689
p609
aV002711
p610
aV300011
p611
aV300013
p612
aV300240
p613
aV300350
p614
aV600038
p615
aV600118
p616
aV600316
p617
aV600343
p618
aV600372
p619
aV600391
p620
aV600879
p621
aV600893
p622
aV000738
p623
aV000768
p624
aV000901
p625
aV002023
p626
aV002111
p627
aV300424
p628
aV600097
p629
aV600108
p630
aV600127
p631
aV600189
p632
aV600195
p633
aV600251
p634
aV600257
p635
aV600265
p636
aV600275
p637
aV600313
p638
aV600354
p639
aV600359
p640
aV600371
p641
aV600438
p642
aV600467
p643
aV600506
p644
aV600540
p645
aV600598
p646
aV600965
p647
aV600975
p648
aV601996
p649
aV603609
p650
aV000048
p651
aV000061
p652
aV000592
p653
aV000663
p654
aV000702
p655
aV000713
p656
aV000735
p657
aV000798
p658
aV000876
p659
aV000998
p660
aV002041
p661
aV002069
p662
aV002086
p663
aV002100
p664
aV002124
p665
aV002157
p666
aV002173
p667
aV002234
p668
aV002299
p669
aV002311
p670
aV002321
p671
aV002385
p672
aV002447
p673
aV002458
p674
aV002477
p675
aV002505
p676
aV002548
p677
aV002567
p678
aV002679
p679
aV002696
p680
aV002714
p681
aV002746
p682
aV300021
p683
aV300087
p684
aV300094
p685
aV300106
p686
aV300143
p687
aV300189
p688
aV300268
p689
aV300313
p690
aV300381
p691
aV600039
p692
aV600068
p693
aV600170
p694
aV600248
p695
aV600284
p696
aV600321
p697
aV600326
p698
aV600491
p699
aV600502
p700
aV600512
p701
aV600528
p702
aV600545
p703
aV600634
p704
aV600681
p705
aV600820
p706
aV600853
p707
aV600970
p708
aV600986
p709
aV601117
p710
aV601186
p711
aV601390
p712
aV601618
p713
aV601668
p714
aV601669
p715
aV601789
p716
aV601800
p717
aV601886
p718
aV603017
p719
aV603018
p720
aV603030
p721
aV603828
p722
aV603969
p723
aV000010
p724
aV000023
p725
aV000055
p726
aV000065
p727
aV000090
p728
aV000498
p729
aV000509
p730
aV000619
p731
aV000786
p732
aV000928
p733
aV000961
p734
aV002043
p735
aV002047
p736
aV002051
p737
aV002060
p738
aV002062
p739
aV002066
p740
aV002081
p741
aV002116
p742
aV002135
p743
aV002140
p744
aV002163
p745
aV002178
p746
aV002205
p747
aV002225
p748
aV002247
p749
aV002271
p750
aV002307
p751
aV002310
p752
aV002314
p753
aV002325
p754
aV002372
p755
aV002375
p756
aV002392
p757
aV002398
p758
aV002431
p759
aV002468
p760
aV002469
p761
aV002482
p762
aV002542
p763
aV002586
p764
aV002596
p765
aV002620
p766
aV002628
p767
aV002652
p768
aV002659
p769
aV002663
p770
aV002671
p771
aV002713
p772
aV002717
p773
aV002738
p774
aV002742
p775
aV300080
p776
aV300117
p777
aV300163
p778
aV300284
p779
aV300344
p780
aV300374
p781
aV600143
p782
aV600146
p783
aV600444
p784
aV600458
p785
aV600589
p786
aV603806
p787
aV000407
p788
aV000859
p789
aV000973
p790
aV002002
p791
aV002108
p792
aV002243
p793
aV002263
p794
aV002324
p795
aV002343
p796
aV002420
p797
aV002457
p798
aV002464
p799
aV002522
p800
aV002585
p801
aV002641
p802
aV002676
p803
aV002694
p804
aV002735
p805
aV300169
p806
aV300198
p807
aV300218
p808
aV300221
p809
aV300230
p810
aV300305
p811
aV300321
p812
aV300325
p813
aV300393
p814
aV600056
p815
aV600122
p816
aV600136
p817
aV600280
p818
aV600306
p819
aV600327
p820
aV600361
p821
aV600415
p822
aV600511
p823
aV600515
p824
aV600628
p825
aV600655
p826
aV600682
p827
aV600693
p828
aV600694
p829
aV600697
p830
aV600712
p831
aV600713
p832
aV600723
p833
aV600729
p834
aV600738
p835
aV600753
p836
aV600774
p837
aV600778
p838
aV600785
p839
aV600790
p840
aV600814
p841
aV600821
p842
aV600824
p843
aV600827
p844
aV600828
p845
aV600833
p846
aV600838
p847
aV600856
p848
aV600857
p849
aV600858
p850
aV600859
p851
aV600861
p852
aV600865
p853
aV600891
p854
aV600898
p855
aV600998
p856
aV601010
p857
aV601116
p858
aV601607
p859
aV601933
p860
aV603123
p861
aV603368
p862
aV603883
p863
aV603939
p864
aV000026
p865
aV000028
p866
aV000062
p867
aV000408
p868
aV000411
p869
aV000416
p870
aV000417
p871
aV000419
p872
aV000501
p873
aV000516
p874
aV000560
p875
aV000564
p876
aV000587
p877
aV000591
p878
aV000638
p879
aV000679
p880
aV000705
p881
aV000715
p882
aV000759
p883
aV000785
p884
aV000829
p885
aV000882
p886
aV000889
p887
aV000906
p888
aV000987
p889
aV002024
p890
aV002187
p891
aV002251
p892
aV002264
p893
aV002277
p894
aV002336
p895
aV002344
p896
aV002416
p897
aV002419
p898
aV002441
p899
aV002462
p900
aV002556
p901
aV002561
p902
aV002589
p903
aV002697
p904
aV300022
p905
aV300413
p906
aV600070
p907
aV600152
p908
aV600156
p909
aV600220
p910
aV600232
p911
aV600370
p912
aV600448
p913
aV600493
p914
aV600626
p915
aV600630
p916
aV600689
p917
aV600735
p918
aV600851
p919
aV600987
p920
aV601339
p921
aV601599
p922
aV603558
p923
aV603889
p924
aV000018
p925
aV000045
p926
aV000158
p927
aV000611
p928
aV000726
p929
aV000779
p930
aV000803
p931
aV000813
p932
aV000850
p933
aV000955
p934
aV000971
p935
aV000982
p936
aV002034
p937
aV002042
p938
aV002070
p939
aV002072
p940
aV002083
p941
aV002087
p942
aV002127
p943
aV002144
p944
aV002193
p945
aV002394
p946
aV002404
p947
aV002516
p948
aV600055
p949
aV600297
p950
aV600587
p951
aV600763
p952
aV603309
p953
aV000150
p954
aV002223
p955
aV002382
p956
aV002432
p957
aV002551
p958
aV002614
p959
aV300003
p960
aV300015
p961
aV300030
p962
aV300061
p963
aV300171
p964
aV300206
p965
aV300216
p966
aV300238
p967
aV300244
p968
aV300246
p969
aV300247
p970
aV300273
p971
aV300298
p972
aV300314
p973
aV300318
p974
aV300326
p975
aV300347
p976
aV300396
p977
aV300404
p978
aV300412
p979
aV600111
p980
aV600139
p981
aV600219
p982
aV600255
p983
aV600259
p984
aV600311
p985
aV600331
p986
aV600338
p987
aV600362
p988
aV600390
p989
aV600432
p990
aV600456
p991
aV600459
p992
aV600489
p993
aV600497
p994
aV600531
p995
aV600547
p996
aV600549
p997
aV600595
p998
aV600673
p999
aV600711
p1000
aV600714
p1001
aV600768
p1002
aV600888
p1003
aV600961
p1004
aV601137
p1005
aV601168
p1006
aV601600
p1007
aV601677
p1008
aV601899
p1009
aV601958
p1010
aV000060
p1011
aV000426
p1012
aV000587
p1013
aV000603
p1014
aV000612
p1015
aV000630
p1016
aV000657
p1017
aV000697
p1018
aV000751
p1019
aV000758
p1020
aV000762
p1021
aV000807
p1022
aV000831
p1023
aV000878
p1024
aV000960
p1025
aV000962
p1026
aV002082
p1027
aV002114
p1028
aV002149
p1029
aV002155
p1030
aV002160
p1031
aV002167
p1032
aV002171
p1033
aV002182
p1034
aV002203
p1035
aV002237
p1036
aV002295
p1037
aV002333
p1038
aV002340
p1039
aV002378
p1040
aV002379
p1041
aV002428
p1042
aV002460
p1043
aV002501
p1044
aV002540
p1045
aV002578
p1046
aV002617
p1047
aV300034
p1048
aV600167
p1049
aV600168
p1050
aV600187
p1051
aV600283
p1052
aV600323
p1053
aV600333
p1054
aV600461
p1055
aV600617
p1056
aV600635
p1057
aV600649
p1058
aV600719
p1059
aV600758
p1060
aV600917
p1061
aV600982
p1062
aV601139
p1063
aV601158
p1064
aV601199
p1065
aV000593
p1066
aV000605
p1067
aV000669
p1068
aV000685
p1069
aV000692
p1070
aV000695
p1071
aV002267
p1072
aV002700
p1073
aV600089
p1074
aV600192
p1075
aV600268
p1076
aV600290
p1077
aV600312
p1078
aV600416
p1079
aV600517
p1080
aV600525
p1081
aV600550
p1082
aV600580
p1083
aV600590
p1084
aV600875
p1085
aV600973
p1086
aV601126
p1087
aV601179
p1088
aV601558
p1089
aV601700
p1090
aV601727
p1091
aV601877
p1092
aV603333
p1093
aV603618
p1094
aV000400
p1095
aV000585
p1096
aV000682
p1097
aV000806
p1098
aV000967
p1099
aV002028
p1100
aV002074
p1101
aV002112
p1102
aV002123
p1103
aV002130
p1104
aV002168
p1105
aV002169
p1106
aV002202
p1107
aV002212
p1108
aV002227
p1109
aV002276
p1110
aV002300
p1111
aV002323
p1112
aV002350
p1113
aV002358
p1114
aV002451
p1115
aV002471
p1116
aV002498
p1117
aV002531
p1118
aV002533
p1119
aV002560
p1120
aV002622
p1121
aV002660
p1122
aV300001
p1123
aV300004
p1124
aV300018
p1125
aV300040
p1126
aV300048
p1127
aV300062
p1128
aV300069
p1129
aV300120
p1130
aV300125
p1131
aV300129
p1132
aV300141
p1133
aV300153
p1134
aV300208
p1135
aV300341
p1136
aV300372
p1137
aV300444
p1138
aV600069
p1139
aV600103
p1140
aV600163
p1141
aV600235
p1142
aV600308
p1143
aV600356
p1144
aV600433
p1145
aV600462
p1146
aV600567
p1147
aV600793
p1148
aV600963
p1149
aV600966
p1150
aV000488
p1151
aV000815
p1152
aV000820
p1153
aV000833
p1154
aV002012
p1155
aV002067
p1156
aV002078
p1157
aV002235
p1158
aV002303
p1159
aV002511
p1160
aV002521
p1161
aV002565
p1162
aV600072
p1163
aV600150
p1164
aV600685
p1165
aV601890
p1166
aV601989
p1167
aV002608
p1168
aV300008
p1169
aV300123
p1170
aV600121
p1171
aV600123
p1172
aV600157
p1173
aV600179
p1174
aV600188
p1175
aV600348
p1176
aV600381
p1177
aV600395
p1178
aV600397
p1179
aV600403
p1180
aV600408
p1181
aV600508
p1182
aV600546
p1183
aV600652
p1184
aV600714
p1185
aV600721
p1186
aV600725
p1187
aV600740
p1188
aV600792
p1189
aV600971
p1190
aV600997
p1191
aV601001
p1192
aV601011
p1193
aV601015
p1194
aV601088
p1195
aV601101
p1196
aV601225
p1197
aV601666
p1198
aV601699
p1199
aV601898
p1200
aV601918
p1201
aV000034
p1202
aV000552
p1203
aV000571
p1204
aV000723
p1205
aV000780
p1206
aV000933
p1207
aV000937
p1208
aV000968
p1209
aV000983
p1210
aV002128
p1211
aV600073
p1212
aV600186
p1213
aV600191
p1214
aV600260
p1215
aV600298
p1216
aV600300
p1217
aV600305
p1218
aV600419
p1219
aV600429
p1220
aV600597
p1221
aV600695
p1222
aV600737
p1223
aV600866
p1224
aV600872
p1225
aV600873
p1226
aV600887
p1227
aV600962
p1228
aV603020
p1229
aV603288
p1230
aV000019
p1231
aV000529
p1232
aV000639
p1233
aV000716
p1234
aV000796
p1235
aV000848
p1236
aV000893
p1237
aV000895
p1238
aV000911
p1239
aV000930
p1240
aV000972
p1241
aV002216
p1242
aV002220
p1243
aV002286
p1244
aV002329
p1245
aV002330
p1246
aV002387
p1247
aV002481
p1248
aV002495
p1249
aV002507
p1250
aV002515
p1251
aV002557
p1252
aV002568
p1253
aV002570
p1254
aV002582
p1255
aV002604
p1256
aV002626
p1257
aV002650
p1258
aV002661
p1259
aV002695
p1260
aV002702
p1261
aV002719
p1262
aV002726
p1263
aV002732
p1264
aV300138
p1265
aV300146
p1266
aV300149
p1267
aV300175
p1268
aV300401
p1269
aV600145
p1270
aV603268
p1271
aV002102
p1272
aV002162
p1273
aV300089
p1274
aV300234
p1275
aV300409
p1276
aV600302
p1277
aV600610
p1278
aV600843
p1279
aV000666
p1280
aV002021
p1281
aV002196
p1282
aV002722
p1283
aV300384
p1284
aV600005
p1285
aV600010
p1286
aV600019
p1287
aV600022
p1288
aV600117
p1289
aV600126
p1290
aV600165
p1291
aV600193
p1292
aV600231
p1293
aV600282
p1294
aV600307
p1295
aV600399
p1296
aV600477
p1297
aV600496
p1298
aV600507
p1299
aV600532
p1300
aV600558
p1301
aV600569
p1302
aV600581
p1303
aV600782
p1304
aV600784
p1305
aV600808
p1306
aV600882
p1307
aV600992
p1308
aV601003
p1309
aV601005
p1310
aV601028
p1311
aV601969
p1312
aV000409
p1313
aV000629
p1314
aV000655
p1315
aV000708
p1316
aV000709
p1317
aV000717
p1318
aV000761
p1319
aV000778
p1320
aV000825
p1321
aV000890
p1322
aV000898
p1323
aV000932
p1324
aV000959
p1325
aV000969
p1326
aV002075
p1327
aV002110
p1328
aV002132
p1329
aV002318
p1330
aV002352
p1331
aV002359
p1332
aV002423
p1333
aV002443
p1334
aV002478
p1335
aV002487
p1336
aV002524
p1337
aV002541
p1338
aV002545
p1339
aV002615
p1340
aV002743
p1341
aV300345
p1342
aV600008
p1343
aV600292
p1344
aV600874
p1345
aV603126
p1346
aV603588
p1347
aV603686
p1348
aV000544
p1349
aV000598
p1350
aV000826
p1351
aV002200
p1352
aV002549
p1353
aV002573
p1354
aV002616
p1355
aV002672
p1356
aV300055
p1357
aV300070
p1358
aV300156
p1359
aV300172
p1360
aV300187
p1361
aV300190
p1362
aV300197
p1363
aV300262
p1364
aV300332
p1365
aV300335
p1366
aV300355
p1367
aV300388
p1368
aV300422
p1369
aV600059
p1370
aV600084
p1371
aV600090
p1372
aV600132
p1373
aV600197
p1374
aV600199
p1375
aV600238
p1376
aV600365
p1377
aV600519
p1378
aV600543
p1379
aV600559
p1380
aV600573
p1381
aV600600
p1382
aV600616
p1383
aV600702
p1384
aV600779
p1385
aV600809
p1386
aV601579
p1387
aV603369
p1388
aV000557
p1389
aV000568
p1390
aV000596
p1391
aV000729
p1392
aV000752
p1393
aV000799
p1394
aV000858
p1395
aV000860
p1396
aV000869
p1397
aV000929
p1398
aV000995
p1399
aV002304
p1400
aV002461
p1401
aV002646
p1402
aV601020
p1403
aV603027
p1404
aV603028
p1405
aV603029
p1406
aV603520
p1407
aV603701
p1408
aV603726
p1409
aV603798
p1410
aV603822
p1411
aV603861
p1412
aV603868
p1413
aV603919
p1414
aV002789
p1415
aV002790
p1416
aV002791
p1417
aV002792
p1418
aV002793
p1419
aV002795
p1420
aV300474
p1421
aV300484
p1422
aV300502
p1423
aV300503
p1424
aV300505
p1425
aV300506
p1426
aV300507
p1427
aV300508
p1428
aV300509
p1429
aV600112
p1430
aV600202
p1431
aV600379
p1432
aV600405
p1433
aV600468
p1434
aV600482
p1435
aV600560
p1436
aV600577
p1437
aV600847
p1438
aV600885
p1439
aV601311
p1440
aV601616
p1441
aV603015
p1442
aV603606
p1443
aV603703
p1444
aV603988
p1445
aV000049
p1446
aV000922
p1447
aV002164
p1448
aV002176
p1449
aV002249
p1450
aV002266
p1451
aV002298
p1452
aV002309
p1453
aV002322
p1454
aV002334
p1455
aV002335
p1456
aV002339
p1457
aV002364
p1458
aV002380
p1459
aV002452
p1460
aV002546
p1461
aV002576
p1462
aV002580
p1463
aV002606
p1464
aV002617
p1465
aV002647
p1466
aV002664
p1467
aV002665
p1468
aV002670
p1469
aV002684
p1470
aV002706
p1471
aV002730
p1472
aV002733
p1473
aV300068
p1474
aV300140
p1475
aV300217
p1476
aV300222
p1477
aV300252
p1478
aV300265
p1479
aV300274
p1480
aV300283
p1481
aV300356
p1482
aV300376
p1483
aV300403
p1484
aV300407
p1485
aV300438
p1486
aV300447
p1487
aV600037
p1488
aV600088
p1489
aV600234
p1490
aV600373
p1491
aV600551
p1492
aV600633
p1493
aV600637
p1494
aV600757
p1495
aV600825
p1496
aV600831
p1497
aV600959
p1498
aV601098
p1499
aV601801
p1500
aV601928
p1501
aV601929
p1502
aV601999
p1503
aV000156
p1504
aV000504
p1505
aV000607
p1506
aV000665
p1507
aV000719
p1508
aV000793
p1509
aV000835
p1510
aV000917
p1511
aV002071
p1512
aV002143
p1513
aV002181
p1514
aV002238
p1515
aV002292
p1516
aV002624
p1517
aV002712
p1518
aV002739
p1519
aV300027
p1520
aV300133
p1521
aV300148
p1522
aV300251
p1523
aV300291
p1524
aV300336
p1525
aV300364
p1526
aV300426
p1527
aV600075
p1528
aV600078
p1529
aV600091
p1530
aV600135
p1531
aV600141
p1532
aV600155
p1533
aV600160
p1534
aV600228
p1535
aV600229
p1536
aV600249
p1537
aV600273
p1538
aV600277
p1539
aV600281
p1540
aV600299
p1541
aV600301
p1542
aV600309
p1543
aV600315
p1544
aV600319
p1545
aV600328
p1546
aV600339
p1547
aV600352
p1548
aV600367
p1549
aV600378
p1550
aV600409
p1551
aV600481
p1552
aV600490
p1553
aV600599
p1554
aV600618
p1555
aV600636
p1556
aV600722
p1557
aV600746
p1558
aV600844
p1559
aV600985
p1560
aV601118
p1561
aV601208
p1562
aV601216
p1563
aV601678
p1564
aV603002
p1565
aV603010
p1566
aV603077
p1567
aV603188
p1568
aV000510
p1569
aV000523
p1570
aV000545
p1571
aV000565
p1572
aV000627
p1573
aV000635
p1574
aV000662
p1575
aV000683
p1576
aV000698
p1577
aV000707
p1578
aV000737
p1579
aV000755
p1580
aV000818
p1581
aV000822
p1582
aV000887
p1583
aV000985
p1584
aV000990
p1585
aV002010
p1586
aV002014
p1587
aV002037
p1588
aV002053
p1589
aV002054
p1590
aV002061
p1591
aV002068
p1592
aV002092
p1593
aV002094
p1594
aV002096
p1595
aV002109
p1596
aV002125
p1597
aV002136
p1598
aV002145
p1599
aV002165
p1600
aV002192
p1601
aV002201
p1602
aV002211
p1603
aV002217
p1604
aV002224
p1605
aV002226
p1606
aV002246
p1607
aV002250
p1608
aV002256
p1609
aV002319
p1610
aV002326
p1611
aV002341
p1612
aV002360
p1613
aV002361
p1614
aV002377
p1615
aV002381
p1616
aV002386
p1617
aV002395
p1618
aV002407
p1619
aV002408
p1620
aV002409
p1621
aV002411
p1622
aV002440
p1623
aV002442
p1624
aV002450
p1625
aV002453
p1626
aV002455
p1627
aV002466
p1628
aV002476
p1629
aV002497
p1630
aV002562
p1631
aV002581
p1632
aV002584
p1633
aV002597
p1634
aV002601
p1635
aV002632
p1636
aV002637
p1637
aV002643
p1638
aV002648
p1639
aV002666
p1640
aV002669
p1641
aV002683
p1642
aV002709
p1643
aV002741
p1644
aV002748
p1645
aV300019
p1646
aV300031
p1647
aV300037
p1648
aV300041
p1649
aV300054
p1650
aV300063
p1651
aV300067
p1652
aV300072
p1653
aV300082
p1654
aV300107
p1655
aV300108
p1656
aV300109
p1657
aV300121
p1658
aV300132
p1659
aV300135
p1660
aV300174
p1661
aV300192
p1662
aV300200
p1663
aV300214
p1664
aV300225
p1665
aV300236
p1666
aV300237
p1667
aV300243
p1668
aV300285
p1669
aV300320
p1670
aV300343
p1671
aV300387
p1672
aV300398
p1673
aV300405
p1674
aV300429
p1675
aV300437
p1676
aV300446
p1677
aV600048
p1678
aV600052
p1679
aV600053
p1680
aV600067
p1681
aV600077
p1682
aV600082
p1683
aV600094
p1684
aV600095
p1685
aV600113
p1686
aV600133
p1687
aV600159
p1688
aV600162
p1689
aV600173
p1690
aV600175
p1691
aV600185
p1692
aV600208
p1693
aV600223
p1694
aV600225
p1695
aV600239
p1696
aV600240
p1697
aV600246
p1698
aV600266
p1699
aV600322
p1700
aV600325
p1701
aV600340
p1702
aV600376
p1703
aV600383
p1704
aV600393
p1705
aV600463
p1706
aV600503
p1707
aV600510
p1708
aV600533
p1709
aV600565
p1710
aV600568
p1711
aV600606
p1712
aV600615
p1713
aV600621
p1714
aV600638
p1715
aV600641
p1716
aV600657
p1717
aV600663
p1718
aV600665
p1719
aV600675
p1720
aV600683
p1721
aV600684
p1722
aV600696
p1723
aV600716
p1724
aV600724
p1725
aV600732
p1726
aV600733
p1727
aV600743
p1728
aV600745
p1729
aV600748
p1730
aV600767
p1731
aV600773
p1732
aV600791
p1733
aV600807
p1734
aV600823
p1735
aV600862
p1736
aV600890
p1737
aV601588
p1738
aV000002
p1739
aV000005
p1740
aV000006
p1741
aV000009
p1742
aV000011
p1743
aV000014
p1744
aV000029
p1745
aV000031
p1746
aV000036
p1747
aV000038
p1748
aV000040
p1749
aV000042
p1750
aV000043
p1751
aV000046
p1752
aV000056
p1753
aV000402
p1754
aV000502
p1755
aV000505
p1756
aV000506
p1757
aV000514
p1758
aV000517
p1759
aV000526
p1760
aV000534
p1761
aV000537
p1762
aV000540
p1763
aV000558
p1764
aV000567
p1765
aV000573
p1766
aV000608
p1767
aV000609
p1768
aV000616
p1769
aV000620
p1770
aV000631
p1771
aV000656
p1772
aV000667
p1773
aV000668
p1774
aV000671
p1775
aV000691
p1776
aV000718
p1777
aV000732
p1778
aV000736
p1779
aV000797
p1780
aV000809
p1781
aV000838
p1782
aV000861
p1783
aV000863
p1784
aV000897
p1785
aV000918
p1786
aV000926
p1787
aV000931
p1788
aV000965
p1789
aV000979
p1790
aV000981
p1791
aV002016
p1792
aV002077
p1793
aV002133
p1794
aV002146
p1795
aV002208
p1796
aV002244
p1797
aV002285
p1798
aV002305
p1799
aV600000
p1800
aV600015
p1801
aV600016
p1802
aV600030
p1803
aV600036
p1804
aV600109
p1805
aV600291
p1806
aV600369
p1807
aV600643
p1808
aV600705
p1809
aV600816
p1810
aV600830
p1811
aV600837
p1812
aV600958
p1813
aV600999
p1814
aV601009
p1815
aV601099
p1816
aV601166
p1817
aV601169
p1818
aV601198
p1819
aV601288
p1820
aV601318
p1821
aV601328
p1822
aV601336
p1823
aV601377
p1824
aV601398
p1825
aV601555
p1826
aV601601
p1827
aV601628
p1828
aV601688
p1829
aV601788
p1830
aV601818
p1831
aV601901
p1832
aV601939
p1833
aV601988
p1834
aV601998
p1835
aV000001
p1836
aV000166
p1837
aV000415
p1838
aV000563
p1839
aV000686
p1840
aV000712
p1841
aV000728
p1842
aV000750
p1843
aV000776
p1844
aV000783
p1845
aV002142
p1846
aV002500
p1847
aV002673
p1848
aV002736
p1849
aV000511
p1850
aV000795
p1851
aV002088
p1852
aV002297
p1853
aV002753
p1854
aV002755
p1855
aV002756
p1856
aV002757
p1857
aV002758
p1858
aV002759
p1859
aV200011
p1860
aV200012
p1861
aV200016
p1862
aV200017
p1863
aV200018
p1864
aV200019
p1865
aV200020
p1866
aV200022
p1867
aV200025
p1868
aV200026
p1869
aV200028
p1870
aV200029
p1871
aV200030
p1872
aV200037
p1873
aV200045
p1874
aV200053
p1875
aV200054
p1876
aV200055
p1877
aV200056
p1878
aV200058
p1879
aV200152
p1880
aV200160
p1881
aV200168
p1882
aV200413
p1883
aV200418
p1884
aV200429
p1885
aV200468
p1886
aV200488
p1887
aV200505
p1888
aV200512
p1889
aV200521
p1890
aV200530
p1891
aV200539
p1892
aV200541
p1893
aV200550
p1894
aV200553
p1895
aV200570
p1896
aV200581
p1897
aV200596
p1898
aV200613
p1899
aV200625
p1900
aV200706
p1901
aV200725
p1902
aV200726
p1903
aV200761
p1904
aV200771
p1905
aV200869
p1906
aV200986
p1907
aV200992
p1908
aV300064
p1909
aV300073
p1910
aV300179
p1911
aV300450
p1912
aV300451
p1913
aV300452
p1914
aV300453
p1915
aV300455
p1916
aV300456
p1917
aV300457
p1918
aV300458
p1919
aV300459
p1920
aV300460
p1921
aV300461
p1922
aV300462
p1923
aV300463
p1924
aV300465
p1925
aV300466
p1926
aV300467
p1927
aV300468
p1928
aV600007
p1929
aV600064
p1930
aV600215
p1931
aV600604
p1932
aV600639
p1933
aV600648
p1934
aV600658
p1935
aV600736
p1936
aV600895
p1937
aV000628
p1938
aV600050
p1939
aV600074
p1940
aV600076
p1941
aV600100
p1942
aV600105
p1943
aV600130
p1944
aV600198
p1945
aV600271
p1946
aV600288
p1947
aV600289
p1948
aV600330
p1949
aV600345
p1950
aV600406
p1951
aV600410
p1952
aV600446
p1953
aV600455
p1954
aV600476
p1955
aV600485
p1956
aV600487
p1957
aV600498
p1958
aV600522
p1959
aV600536
p1960
aV600556
p1961
aV600562
p1962
aV600570
p1963
aV600571
p1964
aV600588
p1965
aV600601
p1966
aV600608
p1967
aV600654
p1968
aV600677
p1969
aV600680
p1970
aV600718
p1971
aV600728
p1972
aV600734
p1973
aV600756
p1974
aV600764
p1975
aV600775
p1976
aV600776
p1977
aV600797
p1978
aV600804
p1979
aV600845
p1980
aV600850
p1981
aV600990
p1982
aV601519
p1983
aV603000
p1984
aV603019
p1985
aV603025
p1986
aV603636
p1987
aV000021
p1988
aV000032
p1989
aV000035
p1990
aV000063
p1991
aV000066
p1992
aV000070
p1993
aV000503
p1994
aV000532
p1995
aV000547
p1996
aV000555
p1997
aV000561
p1998
aV000586
p1999
aV000681
p2000
aV000711
p2001
aV000748
p2002
aV000801
p2003
aV000836
p2004
aV000851
p2005
aV000892
p2006
aV000938
p2007
aV000948
p2008
aV000970
p2009
aV000977
p2010
aV000997
p2011
aV002017
p2012
aV002027
p2013
aV002052
p2014
aV002063
p2015
aV002065
p2016
aV002073
p2017
aV002089
p2018
aV002090
p2019
aV002093
p2020
aV002095
p2021
aV002115
p2022
aV002148
p2023
aV002151
p2024
aV002152
p2025
aV002153
p2026
aV002161
p2027
aV002174
p2028
aV002177
p2029
aV002180
p2030
aV002184
p2031
aV002194
p2032
aV002195
p2033
aV002230
p2034
aV002231
p2035
aV002232
p2036
aV002253
p2037
aV002261
p2038
aV002268
p2039
aV002279
p2040
aV002280
p2041
aV002281
p2042
aV002296
p2043
aV002308
p2044
aV002312
p2045
aV002313
p2046
aV002315
p2047
aV002316
p2048
aV002331
p2049
aV002351
p2050
aV002354
p2051
aV002362
p2052
aV002368
p2053
aV002369
p2054
aV002373
p2055
aV002376
p2056
aV002383
p2057
aV002384
p2058
aV002396
p2059
aV002401
p2060
aV002405
p2061
aV002410
p2062
aV002417
p2063
aV002421
p2064
aV002439
p2065
aV002446
p2066
aV002465
p2067
aV002467
p2068
aV002474
p2069
aV002491
p2070
aV002519
p2071
aV002528
p2072
aV002544
p2073
aV002547
p2074
aV002577
p2075
aV002583
p2076
aV002609
p2077
aV002635
p2078
aV002642
p2079
aV002649
p2080
aV002657
p2081
aV300002
p2082
aV300010
p2083
aV300017
p2084
aV300020
p2085
aV300025
p2086
aV300028
p2087
aV300033
p2088
aV300036
p2089
aV300038
p2090
aV300042
p2091
aV300044
p2092
aV300045
p2093
aV300047
p2094
aV300050
p2095
aV300051
p2096
aV300052
p2097
aV300059
p2098
aV300065
p2099
aV300074
p2100
aV300075
p2101
aV300076
p2102
aV300079
p2103
aV300081
p2104
aV300085
p2105
aV300096
p2106
aV300098
p2107
aV300101
p2108
aV300104
p2109
aV300113
p2110
aV300130
p2111
aV300134
p2112
aV300136
p2113
aV300150
p2114
aV300166
p2115
aV300167
p2116
aV300168
p2117
aV300170
p2118
aV300177
p2119
aV300182
p2120
aV300183
p2121
aV300188
p2122
aV300209
p2123
aV300211
p2124
aV300212
p2125
aV300213
p2126
aV300226
p2127
aV300229
p2128
aV300231
p2129
aV300235
p2130
aV300245
p2131
aV300248
p2132
aV300250
p2133
aV300253
p2134
aV300264
p2135
aV300270
p2136
aV300271
p2137
aV300275
p2138
aV300277
p2139
aV300282
p2140
aV300287
p2141
aV300288
p2142
aV300290
p2143
aV300292
p2144
aV300295
p2145
aV300297
p2146
aV300299
p2147
aV300300
p2148
aV300302
p2149
aV300310
p2150
aV300311
p2151
aV300312
p2152
aV300315
p2153
aV300322
p2154
aV300324
p2155
aV300330
p2156
aV300333
p2157
aV300339
p2158
aV300348
p2159
aV300352
p2160
aV300353
p2161
aV300359
p2162
aV300365
p2163
aV300366
p2164
aV300367
p2165
aV300369
p2166
aV300377
p2167
aV300378
p2168
aV300379
p2169
aV300380
p2170
aV300383
p2171
aV300386
p2172
aV300390
p2173
aV300392
p2174
aV300394
p2175
aV300397
p2176
aV300399
p2177
aV300418
p2178
aV300419
p2179
aV300431
p2180
aV300440
p2181
aV300448
p2182
aV300449
p2183
aV600086
p2184
aV600107
p2185
aV600137
p2186
aV600177
p2187
aV600233
p2188
aV600272
p2189
aV600295
p2190
aV600398
p2191
aV600400
p2192
aV600439
p2193
aV600612
p2194
aV600884
p2195
aV601566
p2196
aV601718
p2197
aV603001
p2198
aV603518
p2199
aV603555
p2200
aV603808
p2201
aV002003
p2202
aV002029
p2203
aV002036
p2204
aV002044
p2205
aV002098
p2206
aV002154
p2207
aV002239
p2208
aV002269
p2209
aV002291
p2210
aV002293
p2211
aV002327
p2212
aV002345
p2213
aV002397
p2214
aV002425
p2215
aV002485
p2216
aV002486
p2217
aV002494
p2218
aV002503
p2219
aV002517
p2220
aV002563
p2221
aV002569
p2222
aV002574
p2223
aV002612
p2224
aV002634
p2225
aV002640
p2226
aV002656
p2227
aV002674
p2228
aV002687
p2229
aV002731
p2230
aV002740
p2231
aV300005
p2232
aV600083
p2233
aV600151
p2234
aV600171
p2235
aV600183
p2236
aV600203
p2237
aV600206
p2238
aV600207
p2239
aV600237
p2240
aV600353
p2241
aV600355
p2242
aV600360
p2243
aV600363
p2244
aV600401
p2245
aV600460
p2246
aV600478
p2247
aV600537
p2248
aV600563
p2249
aV600584
p2250
aV600602
p2251
aV600667
p2252
aV600703
p2253
aV600707
p2254
aV600747
p2255
aV600817
p2256
aV600980
p2257
aV601012
p2258
aV601231
p2259
aV601908
p2260
aV603005
p2261
aV603118
p2262
aV603328
p2263
aV603678
p2264
aV000020
p2265
aV000050
p2266
aV000058
p2267
aV000068
p2268
aV000413
p2269
aV000536
p2270
aV000636
p2271
aV000670
p2272
aV000725
p2273
aV000727
p2274
aV000733
p2275
aV000810
p2276
aV000823
p2277
aV002025
p2278
aV002045
p2279
aV002049
p2280
aV002055
p2281
aV002056
p2282
aV002057
p2283
aV002079
p2284
aV002104
p2285
aV002106
p2286
aV002119
p2287
aV002129
p2288
aV002134
p2289
aV002137
p2290
aV002138
p2291
aV002139
p2292
aV002141
p2293
aV002156
p2294
aV002179
p2295
aV002185
p2296
aV002188
p2297
aV002189
p2298
aV002199
p2299
aV002218
p2300
aV002222
p2301
aV002241
p2302
aV002273
p2303
aV002288
p2304
aV002289
p2305
aV002371
p2306
aV002388
p2307
aV002389
p2308
aV002402
p2309
aV002426
p2310
aV002436
p2311
aV002449
p2312
aV002456
p2313
aV002463
p2314
aV002475
p2315
aV002484
p2316
aV002504
p2317
aV002506
p2318
aV002512
p2319
aV002579
p2320
aV002587
p2321
aV002600
p2322
aV002618
p2323
aV002636
p2324
aV002638
p2325
aV002654
p2326
aV002655
p2327
aV002724
p2328
aV002729
p2329
aV002745
p2330
aV300014
p2331
aV300029
p2332
aV300032
p2333
aV300046
p2334
aV300053
p2335
aV300077
p2336
aV300078
p2337
aV300083
p2338
aV300088
p2339
aV300102
p2340
aV300111
p2341
aV300114
p2342
aV300115
p2343
aV300118
p2344
aV300127
p2345
aV300128
p2346
aV300131
p2347
aV300139
p2348
aV300154
p2349
aV300155
p2350
aV300162
p2351
aV300184
p2352
aV300205
p2353
aV300207
p2354
aV300215
p2355
aV300219
p2356
aV300220
p2357
aV300223
p2358
aV300224
p2359
aV300227
p2360
aV300232
p2361
aV300241
p2362
aV300242
p2363
aV300256
p2364
aV300269
p2365
aV300279
p2366
aV300296
p2367
aV300301
p2368
aV300303
p2369
aV300317
p2370
aV300319
p2371
aV300323
p2372
aV300327
p2373
aV300331
p2374
aV300340
p2375
aV300342
p2376
aV300346
p2377
aV300351
p2378
aV300373
p2379
aV300389
p2380
aV300408
p2381
aV300414
p2382
aV300433
p2383
aV600011
p2384
aV600021
p2385
aV600023
p2386
aV600027
p2387
aV600098
p2388
aV600101
p2389
aV600110
p2390
aV600116
p2391
aV600131
p2392
aV600236
p2393
aV600310
p2394
aV600396
p2395
aV600452
p2396
aV600483
p2397
aV600505
p2398
aV600509
p2399
aV600578
p2400
aV600642
p2401
aV600644
p2402
aV600674
p2403
aV600726
p2404
aV600744
p2405
aV600769
p2406
aV600780
p2407
aV600795
p2408
aV600863
p2409
aV600864
p2410
aV600868
p2411
aV600869
p2412
aV600886
p2413
aV600900
p2414
aV600969
p2415
aV600979
p2416
aV600995
p2417
aV601016
p2418
aV601991
p2419
aV000027
p2420
aV000037
p2421
aV000531
p2422
aV000539
p2423
aV000543
p2424
aV000600
p2425
aV000601
p2426
aV000690
p2427
aV000720
p2428
aV000722
p2429
aV000767
p2430
aV000791
p2431
aV000862
p2432
aV000875
p2433
aV000883
p2434
aV000899
p2435
aV000939
p2436
aV000958
p2437
aV000966
p2438
aV000993
p2439
aV001896
p2440
aV002039
p2441
aV002479
p2442
aV002692
p2443
aV300423
p2444
aV600006
p2445
aV600066
p2446
aV600081
p2447
aV600093
p2448
aV600104
p2449
aV600148
p2450
aV600166
p2451
aV600178
p2452
aV600182
p2453
aV600213
p2454
aV600303
p2455
aV600335
p2456
aV600375
p2457
aV600418
p2458
aV600469
p2459
aV600480
p2460
aV600501
p2461
aV600523
p2462
aV600609
p2463
aV600623
p2464
aV600653
p2465
aV600660
p2466
aV600676
p2467
aV600686
p2468
aV600698
p2469
aV600699
p2470
aV600715
p2471
aV600741
p2472
aV600742
p2473
aV600760
p2474
aV600960
p2475
aV601058
p2476
aV601238
p2477
aV601258
p2478
aV601633
p2479
aV601689
p2480
aV601799
p2481
aV601965
p2482
aV603006
p2483
aV603009
p2484
aV603158
p2485
aV603166
p2486
aV603306
p2487
aV603788
p2488
aV603997
p2489
aV000025
p2490
aV000030
p2491
aV000338
p2492
aV000550
p2493
aV000559
p2494
aV000572
p2495
aV000581
p2496
aV000589
p2497
aV000599
p2498
aV000622
p2499
aV000625
p2500
aV000700
p2501
aV000710
p2502
aV000753
p2503
aV000757
p2504
aV000760
p2505
aV000800
p2506
aV000868
p2507
aV000927
p2508
aV000951
p2509
aV000957
p2510
aV002013
p2511
aV002031
p2512
aV002048
p2513
aV002085
p2514
aV002126
p2515
aV002190
p2516
aV002213
p2517
aV002265
p2518
aV002283
p2519
aV002284
p2520
aV002355
p2521
aV002363
p2522
aV002406
p2523
aV002434
p2524
aV002454
p2525
aV002488
p2526
aV002510
p2527
aV002536
p2528
aV002555
p2529
aV002590
p2530
aV002593
p2531
aV002594
p2532
aV002602
p2533
aV002607
p2534
aV002625
p2535
aV002662
p2536
aV002703
p2537
aV002708
p2538
aV002715
p2539
aV002725
p2540
aV300100
p2541
aV300176
p2542
aV300258
p2543
aV300304
p2544
aV300375
p2545
aV300432
p2546
aV600337
p2547
aV600978
p2548
aV603008
p2549
aV603600
p2550
aV603818
p2551
aV603898
p2552
aV000910
p2553
aV002084
p2554
aV002120
p2555
aV002240
p2556
aV002259
p2557
aV002489
p2558
aV002572
p2559
aV002631
p2560
aV002718
p2561
aV002751
p2562
aV600096
p2563
aV600226
p2564
aV600227
p2565
aV600230
p2566
aV600389
p2567
aV600423
p2568
aV600426
p2569
aV600470
p2570
aV600486
p2571
aV600538
p2572
aV600596
p2573
aV600691
p2574
aV600727
p2575
aV600731
p2576
aV600796
p2577
aV600803
p2578
aV603599
p2579
aV000155
p2580
aV000422
p2581
aV000525
p2582
aV000553
p2583
aV000731
p2584
aV000792
p2585
aV000830
p2586
aV000902
p2587
aV000912
p2588
aV000950
p2589
aV000953
p2590
aV002004
p2591
aV002018
p2592
aV002113
p2593
aV002170
p2594
aV002215
p2595
aV002258
p2596
aV002274
p2597
aV002391
p2598
aV002470
p2599
aV002496
p2600
aV002513
p2601
aV002538
p2602
aV002539
p2603
aV002588
p2604
aV002734
p2605
aV002749
p2606
aV300261
p2607
aV600054
p2608
aV600138
p2609
aV600258
p2610
aV600358
p2611
aV600555
p2612
aV600593
p2613
aV600640
p2614
aV600706
p2615
aV600749
p2616
aV600754
p2617
aV601007
p2618
aV601888
p2619
aV603099
p2620
aV603199
p2621
aV603869
p2622
aV000007
p2623
aV000069
p2624
aV000428
p2625
aV000430
p2626
aV000524
p2627
aV000610
p2628
aV000613
p2629
aV000721
p2630
aV000802
p2631
aV000888
p2632
aV000978
p2633
aV002033
p2634
aV002059
p2635
aV002159
p2636
aV002186
p2637
aV002306
p2638
aV002558
p2639
aV002707
p2640
aV300144
p2641
aV300178
p2642
aV600217
p2643
aV600318
p2644
aV600425
p2645
aV600449
p2646
aV600539
p2647
aV600585
p2648
aV600668
p2649
aV600678
p2650
aV600720
p2651
aV600801
p2652
aV600802
p2653
aV600881
p2654
aV600883
p2655
aV601992
p2656
aV000401
p2657
aV000546
p2658
aV000672
p2659
aV000789
p2660
aV000877
p2661
aV000885
p2662
aV000935
p2663
aV002233
p2664
aV002302
p2665
aV002346
p2666
aV002619
p2667
aV600058
p2668
aV600120
p2669
aV600128
p2670
aV600153
p2671
aV600241
p2672
aV600247
p2673
aV600250
p2674
aV600278
p2675
aV600287
p2676
aV600382
p2677
aV600500
p2678
aV600605
p2679
aV600704
p2680
aV600739
p2681
aV600755
p2682
aV600822
p2683
aV600826
p2684
aV600981
p2685
aV000151
p2686
aV000626
p2687
aV002091
p2688
aV600099
p2689
aV600877
p2690
aV601777
p2691
aV603766
p2692
aV000913
p2693
aV001696
p2694
aV600210
p2695
aV600836
p2696
aV600880
p2697
aV601515
p2698
aV603729
p2699
aV000659
p2700
aV000673
p2701
aV000812
p2702
aV002117
p2703
aV002191
p2704
aV002228
p2705
aV002229
p2706
aV002374
p2707
aV002400
p2708
aV002599
p2709
aV002701
p2710
aV002752
p2711
aV300057
p2712
aV300058
p2713
aV300071
p2714
aV600060
p2715
aV600261
p2716
aV600336
p2717
aV600690
p2718
aV600839
p2719
aV600854
p2720
aV600870
p2721
aV600983
p2722
aV603366
p2723
aV603519
p2724
aV000016
p2725
aV000100
p2726
aV000333
p2727
aV000418
p2728
aV000521
p2729
aV000533
p2730
aV000541
p2731
aV000651
p2732
aV000921
p2733
aV002005
p2734
aV002032
p2735
aV002035
p2736
aV002076
p2737
aV002242
p2738
aV002260
p2739
aV002290
p2740
aV002403
p2741
aV002429
p2742
aV002473
p2743
aV002508
p2744
aV002543
p2745
aV002668
p2746
aV002677
p2747
aV002681
p2748
aV002705
p2749
aV002723
p2750
a.