(lp0
(V603029
p1
F2.2561421889320938e-28
tp2
a(V603726
p3
F2.461246024289557e-27
tp4
a(V300508
p5
F5.503935126454014e-26
tp6
a(V300509
p7
F0.0007652173913043152
tp8
a(V200725
p9
F0.016688859206726896
tp10
a(V200429
p11
F0.021750997456882578
tp12
a(V200761
p13
F0.022046988966985894
tp14
a(V200521
p15
F0.031165136668291113
tp16
a(V200030
p17
F0.03600818228936128
tp18
a(V200570
p19
F0.054891161816225074
tp20
a(V200541
p21
F0.06726934205697441
tp22
a(V200613
p23
F0.10694316587608528
tp24
a(V200016
p25
F0.10879282686185193
tp26
a(V200539
p27
F0.11810874644888444
tp28
a(V200706
p29
F0.1264544695848784
tp30
a(V200026
p31
F0.13599925412425182
tp32
a(V601398
p33
F0.16364015173320928
tp34
a(V200992
p35
F0.18111170250029934
tp36
a(V601288
p37
F0.18258482055845812
tp38
a(V200413
p39
F0.19117130363722223
tp40
a(V200029
p41
F0.19961491094221356
tp42
a(V200012
p43
F0.2192736787260598
tp44
a(V200056
p45
F0.2494101523081022
tp46
a(V200726
p47
F0.2765300632582305
tp48
a(V601988
p49
F0.2773670626101215
tp50
a(V200530
p51
F0.2773849127611391
tp52
a(V200512
p53
F0.29742007440833734
tp54
a(V200017
p55
F0.31651289111876724
tp56
a(V200011
p57
F0.33924866197344233
tp58
a(V200468
p59
F0.3791289018443423
tp60
a(V200505
p61
F0.4044623700811062
tp62
a(V200771
p63
F0.45546124449348435
tp64
a(V601818
p65
F0.46636517921534343
tp66
a(V601939
p67
F0.46654602352879626
tp68
a(V200037
p69
F0.476067745999661
tp70
a(V200488
p71
F0.48699220279475697
tp72
a(V600795
p73
F0.5209620254446239
tp74
a(V200058
p75
F0.5631195679660763
tp76
a(V600221
p77
F0.5683589783037744
tp78
a(V600033
p79
F0.5688373254603274
tp80
a(V200022
p81
F0.6375391558877737
tp82
a(V200550
p83
F0.6877569797371874
tp84
a(V200045
p85
F0.6880098465177311
tp86
a(V200054
p87
F0.7029626709644295
tp88
a(V601328
p89
F0.719344915986031
tp90
a(V601117
p91
F0.7215516953932886
tp92
a(V601991
p93
F0.7561799952332151
tp94
a(V000725
p95
F0.83616792856304
tp96
a(V601258
p97
F0.8847432932086895
tp98
a(V600269
p99
F0.9677936046161738
tp100
a(V600567
p101
F0.9806396045406127
tp102
a(V601518
p103
F0.9816792659428573
tp104
a(V600022
p105
F1.014718646115239
tp106
a(V601558
p107
F1.0686732263996768
tp108
a(V601899
p109
F1.0840069752244845
tp110
a(V600863
p111
F1.0862451225883971
tp112
a(V601005
p113
F1.110356506784562
tp114
a(V600642
p115
F1.1559288235687672
tp116
a(V601588
p117
F1.1603924448151457
tp118
a(V600282
p119
F1.1758677060816163
tp120
a(V000916
p121
F1.203977525001974
tp122
a(V600377
p123
F1.2578663727565205
tp124
a(V600401
p125
F1.2758530961377341
tp126
a(V600691
p127
F1.291116767136612
tp128
a(V000100
p129
F1.2963050018096989
tp130
a(V200020
p131
F1.29890722477391
tp132
a(V600027
p133
F1.3429109223941373
tp134
a(V200055
p135
F1.4109808872522414
tp136
a(V600020
p137
F1.4718497060221905
tp138
a(V600808
p139
F1.4865784020813417
tp140
a(V600512
p141
F1.5110770162292335
tp142
a(V600018
p143
F1.558298226615085
tp144
a(V600307
p145
F1.61017464257557
tp146
a(V601188
p147
F1.6109239688722716
tp148
a(V600578
p149
F1.620849593461924
tp150
a(V601006
p151
F1.625531382650657
tp152
a(V600317
p153
F1.6273235961649475
tp154
a(V600320
p155
F1.6362629551848338
tp156
a(V600039
p157
F1.6378950800037564
tp158
a(V601998
p159
F1.6567194411788504
tp160
a(V601179
p161
F1.6759400238099635
tp162
a(V601333
p163
F1.6923184806378804
tp164
a(V601857
p165
F1.7163746246225318
tp166
a(V600028
p167
F1.8067601208401063
tp168
a(V601668
p169
F1.8255565252822394
tp170
a(V000429
p171
F1.921546745146968
tp172
a(V600236
p173
F1.9514221439660069
tp174
a(V600050
p175
F1.958045544307314
tp176
a(V000883
p177
F1.979161665654955
tp178
a(V000825
p179
F2.051595233641092
tp180
a(V600350
p181
F2.057494328784964
tp182
a(V600653
p183
F2.0687685723061313
tp184
a(V600780
p185
F2.0732173790684203
tp186
a(V600839
p187
F2.101723079625892
tp188
a(V600321
p189
F2.1247398280546936
tp190
a(V600011
p191
F2.1312313743239777
tp192
a(V600208
p193
F2.1790196346200883
tp194
a(V600308
p195
F2.182868959399184
tp196
a(V601618
p197
F2.242205223031885
tp198
a(V600657
p199
F2.2542220270164943
tp200
a(V600069
p201
F2.27471639937404
tp202
a(V002793
p203
F2.3253942857142826
tp204
a(V000667
p205
F2.332546093603369
tp206
a(V601107
p207
F2.381673405257099
tp208
a(V600496
p209
F2.383493650183114
tp210
a(V600220
p211
F2.4266516194535277
tp212
a(V000767
p213
F2.4493017716759624
tp214
a(V600023
p215
F2.512468370036236
tp216
a(V600577
p217
F2.5241293260743194
tp218
a(V000629
p219
F2.529437338122294
tp220
a(V600368
p221
F2.543306018124634
tp222
a(V000709
p223
F2.574898313936258
tp224
a(V000635
p225
F2.6114305122494574
tp226
a(V000656
p227
F2.6274683634184024
tp228
a(V600246
p229
F2.6543850389667516
tp230
a(V000301
p231
F2.6591152619519787
tp232
a(V002064
p233
F2.6618120189283796
tp234
a(V600010
p235
F2.663990938078254
tp236
a(V600169
p237
F2.6769959053508514
tp238
a(V000979
p239
F2.684253835420366
tp240
a(V000539
p241
F2.6925602143548155
tp242
a(V601636
p243
F2.7034810256899044
tp244
a(V600252
p245
F2.742733860708326
tp246
a(V600239
p247
F2.7458984546125307
tp248
a(V200596
p249
F2.829303690103401
tp250
a(V600166
p251
F2.8644591698287822
tp252
a(V601929
p253
F2.874147856193586
tp254
a(V601008
p255
F2.9165226873888774
tp256
a(V000729
p257
F2.918256614611591
tp258
a(V000753
p259
F2.9601619244240998
tp260
a(V600015
p261
F2.9745536023452193
tp262
a(V000157
p263
F2.9847199034945597
tp264
a(V600900
p265
F3.050953582637328
tp266
a(V600569
p267
F3.0718917422055574
tp268
a(V600550
p269
F3.075220328579948
tp270
a(V000422
p271
F3.081415439929764
tp272
a(V600674
p273
F3.081952962685511
tp274
a(V200581
p275
F3.0846990388651907
tp276
a(V600743
p277
F3.112984878453089
tp278
a(V601369
p279
F3.117346838473869
tp280
a(V600170
p281
F3.200170963868012
tp282
a(V000630
p283
F3.2049023010959763
tp284
a(V000897
p285
F3.343990707585435
tp286
a(V600187
p287
F3.357101664145217
tp288
a(V600586
p289
F3.3730683772493637
tp290
a(V600824
p291
F3.3872604833843485
tp292
a(V000809
p293
F3.39504436353821
tp294
a(V000898
p295
F3.3984258342699842
tp296
a(V601218
p297
F3.411593089866812
tp298
a(V002463
p299
F3.466650439397117
tp300
a(V600601
p301
F3.4874244178624556
tp302
a(V600819
p303
F3.4920564153145723
tp304
a(V600656
p305
F3.493698570075878
tp306
a(V600439
p307
F3.500379128058911
tp308
a(V600017
p309
F3.5190915784623913
tp310
a(V000822
p311
F3.5340927363032373
tp312
a(V002342
p313
F3.543843975672514
tp314
a(V600255
p315
F3.5541977204899897
tp316
a(V601139
p317
F3.5632313305489793
tp318
a(V601666
p319
F3.604252072153485
tp320
a(V300102
p321
F3.6145430610022506
tp322
a(V600333
p323
F3.618326649334899
tp324
a(V000965
p325
F3.639853396020679
tp326
a(V600068
p327
F3.6491378437545605
tp328
a(V600575
p329
F3.651285672730469
tp330
a(V600726
p331
F3.6595395457337596
tp332
a(V600163
p333
F3.6664478469161983
tp334
a(V600396
p335
F3.6826748226042847
tp336
a(V000886
p337
F3.68384380425012
tp338
a(V000598
p339
F3.7111892653067313
tp340
a(V603701
p341
F3.7382489606415583
tp342
a(V600063
p343
F3.7638735985359943
tp344
a(V600966
p345
F3.7640212353940217
tp346
a(V600886
p347
F3.7703179808397635
tp348
a(V600005
p349
F3.781365720823899
tp350
a(V600664
p351
F3.8130187561860818
tp352
a(V002083
p353
F3.8340515203114975
tp354
a(V601898
p355
F3.8741137093324745
tp356
a(V000682
p357
F3.914311004964594
tp358
a(V600792
p359
F3.9388757197841904
tp360
a(V600546
p361
F3.943605317899333
tp362
a(V000652
p363
F3.9619460987033457
tp364
a(V600159
p365
F3.9688172067479344
tp366
a(V601169
p367
F3.9762081584937095
tp368
a(V600811
p369
F3.987909592362357
tp370
a(V600031
p371
F4.007148462385652
tp372
a(V600016
p373
F4.026441019987376
tp374
a(V300111
p375
F4.068490792184469
tp376
a(V200152
p377
F4.1279049813260436
tp378
a(V000507
p379
F4.170948011662291
tp380
a(V601600
p381
F4.196817090920295
tp382
a(V600143
p383
F4.199237354592435
tp384
a(V600175
p385
F4.249891865043632
tp386
a(V600126
p387
F4.2562517140091165
tp388
a(V000900
p389
F4.2563421709892895
tp390
a(V000521
p391
F4.294267548071446
tp392
a(V000828
p393
F4.382544037758692
tp394
a(V600794
p395
F4.388430536118273
tp396
a(V002498
p397
F4.469744168449156
tp398
a(V600425
p399
F4.5178962375892855
tp400
a(V601908
p401
F4.520036161457677
tp402
a(V200025
p403
F4.626753429502899
tp404
a(V600871
p405
F4.627364398967798
tp406
a(V000425
p407
F4.62888348250013
tp408
a(V600984
p409
F4.678382121576049
tp410
a(V000088
p411
F4.68100541451519
tp412
a(V200869
p413
F4.693706334932902
tp414
a(V000739
p415
F4.695339341101775
tp416
a(V000683
p417
F4.698848050421859
tp418
a(V600029
p419
F4.701522378163042
tp420
a(V600227
p421
F4.767111844505414
tp422
a(V600210
p423
F4.7717095205462
tp424
a(V601158
p425
F4.805968662757738
tp426
a(V000069
p427
F4.825111424157404
tp428
a(V600125
p429
F4.874714082249628
tp430
a(V002392
p431
F4.886853231508679
tp432
a(V000027
p433
F4.921787609976663
tp434
a(V600583
p435
F4.930053397034107
tp436
a(V600979
p437
F4.939620431098859
tp438
a(V600717
p439
F4.949008539207489
tp440
a(V600223
p441
F4.9660435162469945
tp442
a(V600982
p443
F4.994201258955703
tp444
a(V300082
p445
F5.051573170731072
tp446
a(V600361
p447
F5.076993196353823
tp448
a(V600219
p449
F5.091331650613808
tp450
a(V600006
p451
F5.098680633965887
tp452
a(V000877
p453
F5.1398561949872175
tp454
a(V601616
p455
F5.1438935936458
tp456
a(V600812
p457
F5.1464976745028626
tp458
a(V000830
p459
F5.2375366225265445
tp460
a(V000531
p461
F5.253583035155012
tp462
a(V600261
p463
F5.281313257110446
tp464
a(V600548
p465
F5.282320923412859
tp466
a(V000557
p467
F5.302282756973195
tp468
a(V600675
p469
F5.314280513856691
tp470
a(V000933
p471
F5.322148388471144
tp472
a(V600019
p473
F5.334077434797012
tp474
a(V600115
p475
F5.337125041373889
tp476
a(V600108
p477
F5.342719180845394
tp478
a(V601669
p479
F5.356367550091374
tp480
a(V601866
p481
F5.362613885497549
tp482
a(V600089
p483
F5.3831874309763
tp484
a(V600048
p485
F5.420489918739658
tp486
a(V603077
p487
F5.442310016420548
tp488
a(V002244
p489
F5.46123386500163
tp490
a(V000402
p491
F5.516847985289155
tp492
a(V600256
p493
F5.52098426833
tp494
a(V600509
p495
F5.574976162199925
tp496
a(V000759
p497
F5.641183831881591
tp498
a(V000949
p499
F5.654856203878592
tp500
a(V601111
p501
F5.737648770569047
tp502
a(V600665
p503
F5.7486381101056105
tp504
a(V601106
p505
F5.763145447255423
tp506
a(V600098
p507
F5.799558474121466
tp508
a(V600660
p509
F5.876501752798886
tp510
a(V000600
p511
F5.881035109539712
tp512
a(V600103
p513
F5.892717818081281
tp514
a(V000778
p515
F5.909912417928551
tp516
a(V000616
p517
F5.9356689678927275
tp518
a(V600582
p519
F6.024775794563461
tp520
a(V000419
p521
F6.031383071730739
tp522
a(V002146
p523
F6.038240349020674
tp524
a(V601901
p525
F6.0827167040289
tp526
a(V600059
p527
F6.087659290120228
tp528
a(V200418
p529
F6.1242017046545145
tp530
a(V601099
p531
F6.162379520117005
tp532
a(V000001
p533
F6.1887274621994655
tp534
a(V000428
p535
F6.194948110597892
tp536
a(V600460
p537
F6.214649389569763
tp538
a(V600327
p539
F6.224486233454452
tp540
a(V000537
p541
F6.269800025849009
tp542
a(V000850
p543
F6.271419814410715
tp544
a(V002628
p545
F6.290734719565571
tp546
a(V600322
p547
F6.322381174108786
tp548
a(V200019
p549
F6.33045126250593
tp550
a(V600558
p551
F6.332570096511078
tp552
a(V000862
p553
F6.418807247698714
tp554
a(V600740
p555
F6.431660412108326
tp556
a(V000903
p557
F6.435029443102388
tp558
a(V601000
p559
F6.481500675073547
tp560
a(V600798
p561
F6.552405961876829
tp562
a(V600162
p563
F6.595535582207282
tp564
a(V600369
p565
F6.61179842586646
tp566
a(V002523
p567
F6.679615898914114
tp568
a(V600868
p569
F6.721822445921087
tp570
a(V000089
p571
F6.784531455004323
tp572
a(V000671
p573
F6.893674840052211
tp574
a(V601010
p575
F6.915327069659939
tp576
a(V600508
p577
F6.916548556677871
tp578
a(V600004
p579
F6.976057296762819
tp580
a(V600723
p581
F6.981267508510616
tp582
a(V600757
p583
F7.0083083060784785
tp584
a(V600300
p585
F7.092640936179464
tp586
a(V600844
p587
F7.114846781147505
tp588
a(V300129
p589
F7.127674526849899
tp590
a(V000761
p591
F7.130467518199284
tp592
a(V600429
p593
F7.169293129199676
tp594
a(V601933
p595
F7.172766509087043
tp596
a(V002430
p597
F7.198789692311141
tp598
a(V002613
p599
F7.233598001226181
tp600
a(V601872
p601
F7.246297347808531
tp602
a(V002486
p603
F7.252322885193107
tp604
a(V600635
p605
F7.254839632377197
tp606
a(V000959
p607
F7.326242867214189
tp608
a(V600078
p609
F7.341056134499145
tp610
a(V000912
p611
F7.345413372991564
tp612
a(V601390
p613
F7.432896471156999
tp614
a(V600698
p615
F7.455979060975524
tp616
a(V000338
p617
F7.493260555688564
tp618
a(V600720
p619
F7.58458365886715
tp620
a(V601919
p621
F7.586491048289842
tp622
a(V601678
p623
F7.599230463299396
tp624
a(V600555
p625
F7.6236212211213
tp626
a(V600725
p627
F7.669965803778596
tp628
a(V603002
p629
F7.690475447062431
tp630
a(V600481
p631
F7.701826136531252
tp632
a(V002305
p633
F7.713666779742256
tp634
a(V601339
p635
F7.74455197129756
tp636
a(V600127
p637
F7.798447477062037
tp638
a(V600375
p639
F7.8125494521326
tp640
a(V601766
p641
F7.827594642704144
tp642
a(V000927
p643
F7.84070398463767
tp644
a(V002300
p645
F7.867322484623859
tp646
a(V002585
p647
F7.906920124853928
tp648
a(V000921
p649
F7.9205519833398
tp650
a(V601018
p651
F7.928380455376864
tp652
a(V600997
p653
F7.969248296883545
tp654
a(V603123
p655
F8.024264623962548
tp656
a(V600231
p657
F8.025674810021169
tp658
a(V600408
p659
F8.043852658528225
tp660
a(V600397
p661
F8.044607948150714
tp662
a(V601101
p663
F8.091534331703853
tp664
a(V600823
p665
F8.15245827310476
tp666
a(V000417
p667
F8.17131113842326
tp668
a(V002386
p669
F8.180965977582405
tp670
a(V600609
p671
F8.209960052282025
tp672
a(V600199
p673
F8.238003942025989
tp674
a(V601633
p675
F8.254976760685866
tp676
a(V300185
p677
F8.287981194851287
tp678
a(V000016
p679
F8.29740191360706
tp680
a(V200018
p681
F8.306267988989239
tp682
a(V000731
p683
F8.311151356662096
tp684
a(V600331
p685
F8.331556814530863
tp686
a(V000690
p687
F8.335877790021488
tp688
a(V600708
p689
F8.355082805425797
tp690
a(V600190
p691
F8.423392529288742
tp692
a(V000789
p693
F8.438503588769073
tp694
a(V601989
p695
F8.443800429226293
tp696
a(V600874
p697
F8.477146627958318
tp698
a(V600225
p699
F8.484427498194442
tp700
a(V000407
p701
F8.48513060721034
tp702
a(V002154
p703
F8.61749649566372
tp704
a(V600810
p705
F8.693958455854505
tp706
a(V600067
p707
F8.726148612835924
tp708
a(V600222
p709
F8.733196411346608
tp710
a(V000518
p711
F8.734545888273484
tp712
a(V600684
p713
F8.735890662512253
tp714
a(V600008
p715
F8.81006263817503
tp716
a(V601225
p717
F8.835965480344827
tp718
a(V002060
p719
F8.848426225233375
tp720
a(V601717
p721
F8.861719314878995
tp722
a(V000543
p723
F8.943588220577599
tp724
a(V600403
p725
F8.964150893044488
tp726
a(V002521
p727
F8.9718563183429
tp728
a(V600644
p729
F9.021572401371987
tp730
a(V002269
p731
F9.023021604348228
tp732
a(V000659
p733
F9.041863662519754
tp734
a(V000672
p735
F9.054787025800211
tp736
a(V600995
p737
F9.072150130316778
tp738
a(V002255
p739
F9.183086682239594
tp740
a(V000046
p741
F9.194587293462108
tp742
a(V000882
p743
F9.19967237586723
tp744
a(V002122
p745
F9.20255793161564
tp746
a(V600596
p747
F9.263522098271235
tp748
a(V600157
p749
F9.303908573521294
tp750
a(V600117
p751
F9.313485626835389
tp752
a(V600690
p753
F9.329604195032097
tp754
a(V601003
p755
F9.3353019971809
tp756
a(V600082
p757
F9.340427743142719
tp758
a(V002109
p759
F9.348038400286491
tp760
a(V300283
p761
F9.355892842150945
tp762
a(V600057
p763
F9.41928512666565
tp764
a(V000572
p765
F9.507845336422402
tp766
a(V600336
p767
F9.564299963554648
tp768
a(V600310
p769
F9.578083086055889
tp770
a(V600805
p771
F9.605043347856123
tp772
a(V300303
p773
F9.653173345802152
tp774
a(V600881
p775
F9.661814686874163
tp776
a(V200625
p777
F9.668826940700972
tp778
a(V002429
p779
F9.686953388363426
tp780
a(V600281
p781
F9.687216481537073
tp782
a(V600963
p783
F9.755992532848966
tp784
a(V000981
p785
F9.764055204217009
tp786
a(V002397
p787
F9.814116058788562
tp788
a(V601377
p789
F9.817165475199397
tp790
a(V601011
p791
F9.83339894900683
tp792
a(V603167
p793
F9.876491945833866
tp794
a(V000859
p795
F9.927564858822997
tp796
a(V600533
p797
F9.936564627469606
tp798
a(V000680
p799
F9.94068162068934
tp800
a(V000816
p801
F9.967026389984408
tp802
a(V000692
p803
F9.981931751613892
tp804
a(V002216
p805
F9.993108314402264
tp806
a(V600858
p807
F10.019834987758582
tp808
a(V600353
p809
F10.029665493555093
tp810
a(V600284
p811
F10.147175561468186
tp812
a(V000875
p813
F10.150524011742144
tp814
a(V000528
p815
F10.194114023934537
tp816
a(V600888
p817
F10.240872644341318
tp818
a(V600319
p819
F10.24285221492512
tp820
a(V600761
p821
F10.2502204079836
tp822
a(V600183
p823
F10.250671323679269
tp824
a(V000685
p825
F10.263481037618522
tp826
a(V000030
p827
F10.33026880986794
tp828
a(V600217
p829
F10.344784937122906
tp830
a(V002266
p831
F10.357625480847025
tp832
a(V600507
p833
F10.36394370446028
tp834
a(V002267
p835
F10.365396899857608
tp836
a(V200028
p837
F10.392958957450503
tp838
a(V600736
p839
F10.39946346301843
tp840
a(V600787
p841
F10.480126987823501
tp842
a(V600398
p843
F10.603936011468717
tp844
a(V600077
p845
F10.773080802371469
tp846
a(V601208
p847
F10.778851258862085
tp848
a(V600683
p849
F10.813055699283845
tp850
a(V002561
p851
F10.89257977785181
tp852
a(V600875
p853
F10.915686803380584
tp854
a(V600295
p855
F10.972835269502886
tp856
a(V601226
p857
F11.021822523488959
tp858
a(V300105
p859
F11.036753816718543
tp860
a(V000823
p861
F11.102416543594169
tp862
a(V600186
p863
F11.149250922157824
tp864
a(V601186
p865
F11.151676844468572
tp866
a(V002050
p867
F11.208091705779706
tp868
a(V601965
p869
F11.258037737240773
tp870
a(V002264
p871
F11.278228061877734
tp872
a(V600970
p873
F11.300564105958687
tp874
a(V600744
p875
F11.30330450739422
tp876
a(V600572
p877
F11.322680448938419
tp878
a(V600179
p879
F11.396677603809195
tp880
a(V002540
p881
F11.460924256200023
tp882
a(V600853
p883
F11.473385012348366
tp884
a(V600716
p885
F11.495251211518651
tp886
a(V600285
p887
F11.5456396911336
tp888
a(V600825
p889
F11.564023346297354
tp890
a(V002204
p891
F11.580560531352576
tp892
a(V601166
p893
F11.629258892612805
tp894
a(V600747
p895
F11.664649004139713
tp896
a(V600399
p897
F11.678171870449312
tp898
a(V600277
p899
F11.692417340444743
tp900
a(V601116
p901
F11.695888705165995
tp902
a(V600106
p903
F11.705149828029077
tp904
a(V002478
p905
F11.778602758679359
tp906
a(V000420
p907
F11.792797973555176
tp908
a(V000677
p909
F11.796090487443484
tp910
a(V002563
p911
F11.80164880398083
tp912
a(V300214
p913
F11.928393381050997
tp914
a(V600495
p915
F11.936822139838004
tp916
a(V002199
p917
F11.973346179775335
tp918
a(V600545
p919
F11.977696716634574
tp920
a(V600323
p921
F12.035603183025056
tp922
a(V601958
p923
F12.051096304041303
tp924
a(V601058
p925
F12.101125565804335
tp926
a(V600711
p927
F12.111546260396722
tp928
a(V000899
p929
F12.199487308126201
tp930
a(V600724
p931
F12.220515815511584
tp932
a(V000735
p933
F12.26077421986813
tp934
a(V600280
p935
F12.305214701241614
tp936
a(V600268
p937
F12.331443319217845
tp938
a(V600640
p939
F12.403159609370407
tp940
a(V600790
p941
F12.412733148895796
tp942
a(V000166
p943
F12.466884309078722
tp944
a(V601515
p945
F12.511040162860535
tp946
a(V600776
p947
F12.522332921222903
tp948
a(V000611
p949
F12.528052079586775
tp950
a(V601009
p951
F12.539730440129748
tp952
a(V000413
p953
F12.578556373430688
tp954
a(V600311
p955
F12.579068646956113
tp956
a(V600983
p957
F12.579267136128035
tp958
a(V600667
p959
F12.830861407138144
tp960
a(V600026
p961
F12.867947525138318
tp962
a(V601727
p963
F12.872079888048582
tp964
a(V603366
p965
F12.911815994235143
tp966
a(V002327
p967
F12.913597910162602
tp968
a(V000868
p969
F12.92870806529242
tp970
a(V002062
p971
F12.932692645240005
tp972
a(V601800
p973
F12.965822885045803
tp974
a(V600249
p975
F12.967631034845887
tp976
a(V601999
p977
F12.975837698316234
tp978
a(V600722
p979
F13.041979439067246
tp980
a(V002005
p981
F13.047723491311075
tp982
a(V601880
p983
F13.066926247243138
tp984
a(V002203
p985
F13.137788607654606
tp986
a(V600779
p987
F13.140867484922317
tp988
a(V002021
p989
F13.174627361992538
tp990
a(V600192
p991
F13.184127429370482
tp992
a(V002165
p993
F13.215044742803308
tp994
a(V601808
p995
F13.253626632938893
tp996
a(V600052
p997
F13.27806525186575
tp998
a(V000510
p999
F13.305984040735263
tp1000
a(V000786
p1001
F13.33052989980487
tp1002
a(V600517
p1003
F13.440585812511364
tp1004
a(V000966
p1005
F13.456507620802142
tp1006
a(V300107
p1007
F13.458284995266853
tp1008
a(V300039
p1009
F13.530920282102368
tp1010
a(V600273
p1011
F13.532775787075474
tp1012
a(V000601
p1013
F13.661186035689528
tp1014
a(V000573
p1015
F13.678680176753058
tp1016
a(V000931
p1017
F13.7979201822186
tp1018
a(V000563
p1019
F13.845450357723362
tp1020
a(V600248
p1021
F13.865744829038722
tp1022
a(V600806
p1023
F13.891437172722469
tp1024
a(V000650
p1025
F13.89634395704018
tp1026
a(V002068
p1027
F13.912601705535694
tp1028
a(V600527
p1029
F13.987127701848797
tp1030
a(V600676
p1031
F14.050353688574583
tp1032
a(V600267
p1033
F14.195268259015789
tp1034
a(V600621
p1035
F14.207275241200836
tp1036
a(V000935
p1037
F14.306916572277645
tp1038
a(V600007
p1039
F14.318893870780672
tp1040
a(V000006
p1041
F14.331510221369292
tp1042
a(V002471
p1043
F14.338102453079818
tp1044
a(V600869
p1045
F14.350315895766444
tp1046
a(V000861
p1047
F14.354526805956798
tp1048
a(V600240
p1049
F14.367409271949162
tp1050
a(V600151
p1051
F14.401330041755786
tp1052
a(V000589
p1053
F14.406388577164076
tp1054
a(V002697
p1055
F14.415791510006958
tp1056
a(V601918
p1057
F14.436510613959465
tp1058
a(V601216
p1059
F14.449464187975861
tp1060
a(V600415
p1061
F14.50525839621821
tp1062
a(V002163
p1063
F14.531828788977318
tp1064
a(V002218
p1065
F14.548026968083086
tp1066
a(V600376
p1067
F14.65235206280016
tp1068
a(V600337
p1069
F14.779994840538171
tp1070
a(V002419
p1071
F14.800038670174821
tp1072
a(V600961
p1073
F14.805249378248241
tp1074
a(V300164
p1075
F14.896958717197968
tp1076
a(V600461
p1077
F14.925216199636603
tp1078
a(V601118
p1079
F15.06715902338852
tp1080
a(V002317
p1081
F15.120553090099452
tp1082
a(V600051
p1083
F15.12979602109931
tp1084
a(V600449
p1085
F15.144227319666491
tp1086
a(V603333
p1087
F15.170909041417852
tp1088
a(V000036
p1089
F15.17765932943377
tp1090
a(V601028
p1091
F15.192323447611164
tp1092
a(V000982
p1093
F15.285521883656441
tp1094
a(V600830
p1095
F15.306799026426255
tp1096
a(V000727
p1097
F15.37961564071607
tp1098
a(V600719
p1099
F15.42262465961745
tp1100
a(V600791
p1101
F15.443867372373438
tp1102
a(V600510
p1103
F15.49294598757502
tp1104
a(V000631
p1105
F15.528813237741474
tp1106
a(V600226
p1107
F15.561751620748531
tp1108
a(V600505
p1109
F15.573450476852804
tp1110
a(V600866
p1111
F15.603106230869686
tp1112
a(V000517
p1113
F15.646380573834712
tp1114
a(V000737
p1115
F15.68527070858541
tp1116
a(V600346
p1117
F15.744349916406422
tp1118
a(V600409
p1119
F15.755807786864517
tp1120
a(V600713
p1121
F15.878951570303778
tp1122
a(V000783
p1123
F15.905056585915132
tp1124
a(V601608
p1125
F15.957236899747473
tp1126
a(V000939
p1127
F16.082689558233888
tp1128
a(V600133
p1129
F16.11468222139059
tp1130
a(V002337
p1131
F16.150788110351748
tp1132
a(V600021
p1133
F16.16301055448605
tp1134
a(V002336
p1135
F16.180987427887192
tp1136
a(V600748
p1137
F16.22422279513834
tp1138
a(V002206
p1139
F16.2271954577589
tp1140
a(V300132
p1141
F16.299082012787473
tp1142
a(V600121
p1143
F16.330226825526992
tp1144
a(V002641
p1145
F16.33761137389224
tp1146
a(V600755
p1147
F16.365375531561465
tp1148
a(V000570
p1149
F16.3659324425723
tp1150
a(V000620
p1151
F16.463476650669325
tp1152
a(V603128
p1153
F16.502604393470776
tp1154
a(V600470
p1155
F16.571239916535248
tp1156
a(V002054
p1157
F16.5732945337615
tp1158
a(V000540
p1159
F16.589960469389077
tp1160
a(V002650
p1161
F16.62732737042155
tp1162
a(V002078
p1163
F16.803087498709285
tp1164
a(V600981
p1165
F16.850299175314287
tp1166
a(V300255
p1167
F16.900105069335034
tp1168
a(V601579
p1169
F16.906364903212197
tp1170
a(V002132
p1171
F16.935552508467136
tp1172
a(V600821
p1173
F16.99439912878234
tp1174
a(V000637
p1175
F17.033353766407274
tp1176
a(V000751
p1177
F17.03395990867567
tp1178
a(V000005
p1179
F17.035873167118616
tp1180
a(V002133
p1181
F17.091297970807634
tp1182
a(V600326
p1183
F17.105389473634123
tp1184
a(V000726
p1185
F17.109649595760516
tp1186
a(V600426
p1187
F17.19920188590283
tp1188
a(V002249
p1189
F17.209523166289294
tp1190
a(V600110
p1191
F17.233293344698065
tp1192
a(V600416
p1193
F17.241677370285768
tp1194
a(V002003
p1195
F17.26222387200524
tp1196
a(V601002
p1197
F17.29007827854689
tp1198
a(V000551
p1199
F17.30140137040742
tp1200
a(V600846
p1201
F17.30361743965637
tp1202
a(V601789
p1203
F17.358666402739168
tp1204
a(V600731
p1205
F17.473771447319184
tp1206
a(V600688
p1207
F17.50581708149217
tp1208
a(V002029
p1209
F17.538165164461738
tp1210
a(V002404
p1211
F17.62359118903316
tp1212
a(V002142
p1213
F17.672331318692855
tp1214
a(V000922
p1215
F17.710175131627082
tp1216
a(V000430
p1217
F17.71045255678235
tp1218
a(V600681
p1219
F17.76526731594874
tp1220
a(V002406
p1221
F17.782364994727693
tp1222
a(V600802
p1223
F17.879054564710763
tp1224
a(V000012
p1225
F17.88635957522557
tp1226
a(V600887
p1227
F17.95356057331999
tp1228
a(V600854
p1229
F17.95818282350296
tp1230
a(V002293
p1231
F18.018696518300125
tp1232
a(V600351
p1233
F18.02032745036579
tp1234
a(V000908
p1235
F18.020586967914046
tp1236
a(V000698
p1237
F18.034980452082493
tp1238
a(V600598
p1239
F18.080186835714805
tp1240
a(V600782
p1241
F18.11433714319206
tp1242
a(V002433
p1243
F18.197685577043707
tp1244
a(V600356
p1245
F18.243780221311546
tp1246
a(V002100
p1247
F18.27238121394653
tp1248
a(V601677
p1249
F18.293361438695392
tp1250
a(V002128
p1251
F18.3394259789289
tp1252
a(V601313
p1253
F18.35002075773816
tp1254
a(V600741
p1255
F18.36517027359955
tp1256
a(V600784
p1257
F18.368291807220672
tp1258
a(V600565
p1259
F18.375595203823487
tp1260
a(V600973
p1261
F18.37870287441826
tp1262
a(V600000
p1263
F18.475493698512093
tp1264
a(V000404
p1265
F18.517244988238858
tp1266
a(V600393
p1267
F18.517513107463152
tp1268
a(V002092
p1269
F18.594465999206683
tp1270
a(V600860
p1271
F18.62760733005016
tp1272
a(V002170
p1273
F18.751922144817907
tp1274
a(V600603
p1275
F18.80340452578584
tp1276
a(V600177
p1277
F18.856990647402316
tp1278
a(V600712
p1279
F18.861737026541974
tp1280
a(V600301
p1281
F18.913926052122786
tp1282
a(V002554
p1283
F18.91399427169291
tp1284
a(V600400
p1285
F18.977957642616786
tp1286
a(V002651
p1287
F18.984304197055394
tp1288
a(V300158
p1289
F18.99104174048139
tp1290
a(V002565
p1291
F19.01738937832697
tp1292
a(V600616
p1293
F19.096220639038954
tp1294
a(V600290
p1295
F19.162024592827958
tp1296
a(V601519
p1297
F19.22292124024092
tp1298
a(V601992
p1299
F19.247057157940358
tp1300
a(V002666
p1301
F19.26529324712727
tp1302
a(V600606
p1303
F19.28541853445028
tp1304
a(V000552
p1305
F19.289712410709683
tp1306
a(V000008
p1307
F19.30367384121792
tp1308
a(V600448
p1309
F19.34185998341413
tp1310
a(V601798
p1311
F19.342656786650572
tp1312
a(V000978
p1313
F19.35444631734905
tp1314
a(V000506
p1315
F19.371974386490844
tp1316
a(V601928
p1317
F19.42704655362936
tp1318
a(V600673
p1319
F19.56173450856308
tp1320
a(V002535
p1321
F19.572556758878104
tp1322
a(V002087
p1323
F19.661286640884228
tp1324
a(V002531
p1325
F19.662656230694942
tp1326
a(V600820
p1327
F19.714666714763307
tp1328
a(V002693
p1329
F19.870551584970162
tp1330
a(V600815
p1331
F19.924462495462134
tp1332
a(V300259
p1333
F19.98488304274743
tp1334
a(V601890
p1335
F20.009791528879624
tp1336
a(V300169
p1337
F20.032760420162607
tp1338
a(V002461
p1339
F20.049533256268333
tp1340
a(V600348
p1341
F20.13075228337389
tp1342
a(V601016
p1343
F20.16527848589351
tp1344
a(V002497
p1345
F20.298921973016807
tp1346
a(V002420
p1347
F20.423806767215208
tp1348
a(V000919
p1349
F20.653014527231303
tp1350
a(V600721
p1351
F20.6688446252438
tp1352
a(V300154
p1353
F20.708264730931273
tp1354
a(V600490
p1355
F20.751796481498463
tp1356
a(V600132
p1357
F20.836123277609197
tp1358
a(V600131
p1359
F20.84002679634854
tp1360
a(V300152
p1361
F20.848327788286618
tp1362
a(V600428
p1363
F20.84996817914215
tp1364
a(V600758
p1365
F20.86180195118779
tp1366
a(V600168
p1367
F20.898376446606438
tp1368
a(V000523
p1369
F20.98202623775631
tp1370
a(V002390
p1371
F21.055338483101018
tp1372
a(V600123
p1373
F21.058425298954297
tp1374
a(V600313
p1375
F21.067087440602897
tp1376
a(V600641
p1377
F21.13923556612942
tp1378
a(V000788
p1379
F21.172965799028038
tp1380
a(V002457
p1381
F21.222794436270064
tp1382
a(V600036
p1383
F21.224633081335288
tp1384
a(V600328
p1385
F21.229259197614965
tp1386
a(V601231
p1387
F21.273255765482894
tp1388
a(V002116
p1389
F21.305971173864446
tp1390
a(V002495
p1391
F21.344286572882336
tp1392
a(V300210
p1393
F21.436276767676407
tp1394
a(V600613
p1395
F21.58953623307112
tp1396
a(V600597
p1397
F21.640411623207218
tp1398
a(V000021
p1399
F21.66981134038043
tp1400
a(V600707
p1401
F21.70622844923487
tp1402
a(V600540
p1403
F21.75121356773527
tp1404
a(V600056
p1405
F21.805646639243278
tp1406
a(V600467
p1407
F21.832465921889835
tp1408
a(V300026
p1409
F21.855140084597725
tp1410
a(V600789
p1411
F21.86101102892172
tp1412
a(V000529
p1413
F21.89547730925435
tp1414
a(V601177
p1415
F21.961063803002695
tp1416
a(V600297
p1417
F22.015390519674263
tp1418
a(V002385
p1419
F22.026938261769406
tp1420
a(V002663
p1421
F22.03278245541131
tp1422
a(V000848
p1423
F22.04815476580412
tp1424
a(V601996
p1425
F22.053751986791745
tp1426
a(V002297
p1427
F22.119634697404948
tp1428
a(V002076
p1429
F22.17130441061129
tp1430
a(V002233
p1431
F22.18350232226716
tp1432
a(V600352
p1433
F22.223223696244695
tp1434
a(V600287
p1435
F22.23484495590519
tp1436
a(V600872
p1437
F22.34946737584045
tp1438
a(V002646
p1439
F22.412385519555478
tp1440
a(V002004
p1441
F22.478754964526637
tp1442
a(V000617
p1443
F22.482051401334843
tp1444
a(V600622
p1445
F22.571505313463703
tp1446
a(V300215
p1447
F22.595496900178826
tp1448
a(V002583
p1449
F22.721715955673353
tp1450
a(V600801
p1451
F22.7427519599681
tp1452
a(V603699
p1453
F22.79675382803539
tp1454
a(V600066
p1455
F22.80799485000709
tp1456
a(V000547
p1457
F22.81031858458398
tp1458
a(V002344
p1459
F22.831612147466156
tp1460
a(V002480
p1461
F22.901987536368317
tp1462
a(V300323
p1463
F23.163624642882745
tp1464
a(V600608
p1465
F23.291598624534416
tp1466
a(V002689
p1467
F23.343021395782333
tp1468
a(V300301
p1469
F23.38793932271562
tp1470
a(V600917
p1471
F23.40127895023962
tp1472
a(V000790
p1473
F23.492825414637043
tp1474
a(V002079
p1475
F23.53657644804053
tp1476
a(V002398
p1477
F23.66855386849857
tp1478
a(V000707
p1479
F23.69909894167592
tp1480
a(V601555
p1481
F23.712485072040856
tp1482
a(V600232
p1483
F23.750709183457513
tp1484
a(V002795
p1485
F23.811006060606044
tp1486
a(V600196
p1487
F23.84559212664148
tp1488
a(V002532
p1489
F23.932625164291533
tp1490
a(V603100
p1491
F23.953196790789487
tp1492
a(V601700
p1493
F23.968330172948587
tp1494
a(V300108
p1495
F24.088409930275198
tp1496
a(V002598
p1497
F24.15204650114651
tp1498
a(V600829
p1499
F24.222611395816433
tp1500
a(V600971
p1501
F24.27436026343852
tp1502
a(V600197
p1503
F24.315439338877603
tp1504
a(V002277
p1505
F24.369702121707167
tp1506
a(V002639
p1507
F24.40088868587854
tp1508
a(V601718
p1509
F24.411667995626797
tp1510
a(V600218
p1511
F24.413238062123767
tp1512
a(V600797
p1513
F24.423642446792527
tp1514
a(V000043
p1515
F24.48583927742196
tp1516
a(V000880
p1517
F24.524721546943557
tp1518
a(V002483
p1519
F24.567460278616075
tp1520
a(V600638
p1521
F24.633778607518344
tp1522
a(V300172
p1523
F24.651132493895098
tp1524
a(V600096
p1525
F24.684305148025295
tp1526
a(V600062
p1527
F24.68876784908679
tp1528
a(V600518
p1529
F24.706333018048397
tp1530
a(V600237
p1531
F24.748644363926687
tp1532
a(V002481
p1533
F24.77717795195957
tp1534
a(V002067
p1535
F24.80946643865604
tp1536
a(V600251
p1537
F24.828874837481482
tp1538
a(V600827
p1539
F24.91157742007432
tp1540
a(V600325
p1541
F24.928473513881777
tp1542
a(V600477
p1543
F24.94035934513248
tp1544
a(V600104
p1545
F24.98889937209037
tp1546
a(V600769
p1547
F25.000550250949313
tp1548
a(V300193
p1549
F25.00599079597957
tp1550
a(V002321
p1551
F25.065083350732873
tp1552
a(V002549
p1553
F25.136435072152484
tp1554
a(V300179
p1555
F25.13763118447959
tp1556
a(V600595
p1557
F25.191220266282492
tp1558
a(V000554
p1559
F25.21937541020151
tp1560
a(V300320
p1561
F25.251099416431767
tp1562
a(V600727
p1563
F25.294492333031812
tp1564
a(V002263
p1565
F25.316906212239036
tp1566
a(V000560
p1567
F25.35910146791051
tp1568
a(V600141
p1569
F25.376767599138702
tp1570
a(V000800
p1571
F25.393669451490634
tp1572
a(V300090
p1573
F25.406416784805536
tp1574
a(V002422
p1575
F25.476571924498362
tp1576
a(V002010
p1577
F25.498643351252134
tp1578
a(V000937
p1579
F25.51280508228113
tp1580
a(V600207
p1581
F25.513259227800283
tp1582
a(V000719
p1583
F25.526815905939245
tp1584
a(V000599
p1585
F25.578596965990126
tp1586
a(V000096
p1587
F25.63896822818189
tp1588
a(V300022
p1589
F25.68880943114003
tp1590
a(V601012
p1591
F25.758207779086053
tp1592
a(V600479
p1593
F25.785539916093896
tp1594
a(V603969
p1595
F25.871060698367966
tp1596
a(V601699
p1597
F25.874550922225755
tp1598
a(V002630
p1599
F26.035633389055977
tp1600
a(V002538
p1601
F26.052521971553777
tp1602
a(V000780
p1603
F26.09345085655222
tp1604
a(V600705
p1605
F26.126691705043577
tp1606
a(V300150
p1607
F26.194914029149786
tp1608
a(V000010
p1609
F26.25390736351001
tp1610
a(V002501
p1611
F26.271050406240125
tp1612
a(V000155
p1613
F26.315618963081683
tp1614
a(V002564
p1615
F26.322081895604747
tp1616
a(V600173
p1617
F26.35028215811829
tp1618
a(V600433
p1619
F26.397458353375423
tp1620
a(V600094
p1621
F26.439132043377455
tp1622
a(V002455
p1623
F26.469148723905707
tp1624
a(V600778
p1625
F26.507514321018792
tp1626
a(V300095
p1627
F26.517348600056035
tp1628
a(V600354
p1629
F26.52422950767493
tp1630
a(V002039
p1631
F26.527555013635105
tp1632
a(V600814
p1633
F26.548916195543118
tp1634
a(V600462
p1635
F26.552194692042608
tp1636
a(V002046
p1637
F26.585680824975075
tp1638
a(V600380
p1639
F26.604409419068407
tp1640
a(V600809
p1641
F26.708851433809457
tp1642
a(V600617
p1643
F26.84600834428669
tp1644
a(V000721
p1645
F26.890963476160543
tp1646
a(V600626
p1647
F26.945228075472503
tp1648
a(V600658
p1649
F26.950426651148437
tp1650
a(V600275
p1651
F26.963426028845074
tp1652
a(V600655
p1653
F27.008506666322237
tp1654
a(V002534
p1655
F27.014968575607757
tp1656
a(V002307
p1657
F27.03493260070036
tp1658
a(V600602
p1659
F27.128079120710787
tp1660
a(V600837
p1661
F27.194731514013025
tp1662
a(V002187
p1663
F27.194863264641903
tp1664
a(V000026
p1665
F27.27664674079939
tp1666
a(V300080
p1667
F27.299454057380398
tp1668
a(V300086
p1669
F27.376526331374667
tp1670
a(V600086
p1671
F27.388677165452194
tp1672
a(V601607
p1673
F27.416994620686637
tp1674
a(V300079
p1675
F27.438626068479557
tp1676
a(V300239
p1677
F27.465020182388756
tp1678
a(V600359
p1679
F27.5205262740206
tp1680
a(V600100
p1681
F27.59698418438987
tp1682
a(V000488
p1683
F27.67187198417118
tp1684
a(V000961
p1685
F27.67744110861741
tp1686
a(V600803
p1687
F27.680503780626843
tp1688
a(V600466
p1689
F27.771859689041932
tp1690
a(V600500
p1691
F27.82870441762838
tp1692
a(V002167
p1693
F27.830437086309058
tp1694
a(V000541
p1695
F27.837269233517972
tp1696
a(V600891
p1697
F27.880049794007256
tp1698
a(V002694
p1699
F27.88583381160114
tp1700
a(V600561
p1701
F27.910282359621323
tp1702
a(V000999
p1703
F27.99710109349925
tp1704
a(V000039
p1705
F28.00375643969235
tp1706
a(V000756
p1707
F28.041267463280136
tp1708
a(V000544
p1709
F28.077134919503195
tp1710
a(V002499
p1711
F28.178908891378455
tp1712
a(V603868
p1713
F28.210571602610468
tp1714
a(V300064
p1715
F28.250994528240135
tp1716
a(V002033
p1717
F28.283791879060388
tp1718
a(V600759
p1719
F28.309443544018517
tp1720
a(V600531
p1721
F28.326120198590242
tp1722
a(V600614
p1723
F28.461686794005086
tp1724
a(V601126
p1725
F28.63222686093577
tp1726
a(V000607
p1727
F28.761701330817434
tp1728
a(V600178
p1729
F28.802873162640548
tp1730
a(V300135
p1731
F28.859235929740585
tp1732
a(V600202
p1733
F28.891876763141624
tp1734
a(V300237
p1735
F28.92597981102782
tp1736
a(V603606
p1737
F28.944956680894347
tp1738
a(V002506
p1739
F28.96329871787305
tp1740
a(V002178
p1741
F28.971217101836036
tp1742
a(V002016
p1743
F29.037923163765893
tp1744
a(V000813
p1745
F29.046340742687285
tp1746
a(V000061
p1747
F29.09736379600128
tp1748
a(V002487
p1749
F29.15282112482836
tp1750
a(V000852
p1751
F29.166732758698725
tp1752
a(V600896
p1753
F29.260846007188153
tp1754
a(V002570
p1755
F29.28822290551825
tp1756
a(V002225
p1757
F29.309279653580525
tp1758
a(V600503
p1759
F29.32723023928151
tp1760
a(V002470
p1761
F29.463796876941053
tp1762
a(V000791
p1763
F29.51694771005588
tp1764
a(V600861
p1765
F29.529728678636697
tp1766
a(V600480
p1767
F29.59453593144897
tp1768
a(V002644
p1769
F29.674896877652557
tp1770
a(V000042
p1771
F29.69491707176058
tp1772
a(V601969
p1773
F29.69795913009223
tp1774
a(V002391
p1775
F29.7049358291374
tp1776
a(V000807
p1777
F29.71790747250691
tp1778
a(V601886
p1779
F29.8461773319127
tp1780
a(V000665
p1781
F29.910312953942803
tp1782
a(V600418
p1783
F29.979949174727736
tp1784
a(V002489
p1785
F29.98552153541576
tp1786
a(V600266
p1787
F30.12405589630819
tp1788
a(V000548
p1789
F30.147506916360296
tp1790
a(V600387
p1791
F30.19727867939538
tp1792
a(V600109
p1793
F30.197826690078013
tp1794
a(V600865
p1795
F30.212157705167854
tp1796
a(V600084
p1797
F30.36693440643064
tp1798
a(V601628
p1799
F30.40374335460745
tp1800
a(V000416
p1801
F30.46463472837383
tp1802
a(V000888
p1803
F30.48210675227977
tp1804
a(V600080
p1805
F30.49654955534239
tp1806
a(V002303
p1807
F30.61134983923665
tp1808
a(V600557
p1809
F30.620951664375433
tp1810
a(V002282
p1811
F30.64358251150135
tp1812
a(V002736
p1813
F30.656331546479883
tp1814
a(V002648
p1815
F30.695922879725863
tp1816
a(V600203
p1817
F30.746970150237015
tp1818
a(V000525
p1819
F30.750320437209332
tp1820
a(V600760
p1821
F30.758872685732307
tp1822
a(V600458
p1823
F30.78700355709517
tp1824
a(V002332
p1825
F31.063076234536148
tp1826
a(V600734
p1827
F31.06655051677595
tp1828
a(V000905
p1829
F31.068572772969834
tp1830
a(V002493
p1831
F31.122132435571135
tp1832
a(V002185
p1833
F31.19386655248973
tp1834
a(V002160
p1835
F31.260034276288604
tp1836
a(V002469
p1837
F31.276647478007003
tp1838
a(V000533
p1839
F31.278919173485907
tp1840
a(V600529
p1841
F31.300440904315078
tp1842
a(V600383
p1843
F31.360527642096724
tp1844
a(V000514
p1845
F31.441660291154246
tp1846
a(V002135
p1847
F31.466866482613195
tp1848
a(V601007
p1849
F31.771593047132946
tp1850
a(V300087
p1851
F31.813053624561768
tp1852
a(V300218
p1853
F31.84527498956313
tp1854
a(V600491
p1855
F31.848797542279325
tp1856
a(V600965
p1857
F31.85724989500676
tp1858
a(V002318
p1859
F31.8793479153167
tp1860
a(V000564
p1861
F31.90050133665405
tp1862
a(V600879
p1863
F31.920576135151105
tp1864
a(V002106
p1865
F32.017160108691805
tp1866
a(V600880
p1867
F32.08020926696277
tp1868
a(V002566
p1869
F32.11371565804509
tp1870
a(V000639
p1871
F32.180807055858494
tp1872
a(V000793
p1873
F32.21191667385274
tp1874
a(V600265
p1875
F32.28302860501808
tp1876
a(V600138
p1877
F32.29353143949831
tp1878
a(V600076
p1879
F32.340273855131585
tp1880
a(V600589
p1881
F32.357381326233075
tp1882
a(V600329
p1883
F32.36220517025318
tp1884
a(V000863
p1885
F32.3861800926103
tp1886
a(V600704
p1887
F32.57888500178462
tp1888
a(V002194
p1889
F32.633070885551156
tp1890
a(V000837
p1891
F32.778586092908235
tp1892
a(V600483
p1893
F32.85329986704321
tp1894
a(V000782
p1895
F32.87751776061795
tp1896
a(V002345
p1897
F32.97647279921768
tp1898
a(V600189
p1899
F33.057799793869435
tp1900
a(V600999
p1901
F33.20060170399097
tp1902
a(V000501
p1903
F33.2033606996167
tp1904
a(V300020
p1905
F33.238648547302596
tp1906
a(V600312
p1907
F33.31480998752394
tp1908
a(V600532
p1909
F33.3510556623957
tp1910
a(V002533
p1911
F33.42011496548472
tp1912
a(V000926
p1913
F33.47707768589918
tp1914
a(V600432
p1915
F33.52529456718323
tp1916
a(V000040
p1917
F33.85015557728102
tp1918
a(V601088
p1919
F33.89043670197166
tp1920
a(V601113
p1921
F33.96218402390905
tp1922
a(V002265
p1923
F33.96719595593603
tp1924
a(V600628
p1925
F33.98743095051158
tp1926
a(V000063
p1927
F34.03879679767519
tp1928
a(V000686
p1929
F34.19614272835585
tp1930
a(V000906
p1931
F34.24839673337525
tp1932
a(V002285
p1933
F34.33210592314335
tp1934
a(V002449
p1935
F34.33473944287828
tp1936
a(V002024
p1937
F34.38068276404733
tp1938
a(V002302
p1939
F34.391999646841526
tp1940
a(V002215
p1941
F34.39412994729996
tp1942
a(V600993
p1943
F34.41767199916373
tp1944
a(V002129
p1945
F34.42320274556872
tp1946
a(V000655
p1947
F34.42522366635335
tp1948
a(V600030
p1949
F34.433535553075004
tp1950
a(V002516
p1951
F34.49121309611555
tp1952
a(V002274
p1953
F34.59069419572212
tp1954
a(V600816
p1955
F34.63440088370126
tp1956
a(V000568
p1957
F34.67462034340324
tp1958
a(V002490
p1959
F34.69211574796465
tp1960
a(V600668
p1961
F34.72517928327574
tp1962
a(V600639
p1963
F34.86248475277606
tp1964
a(V000031
p1965
F34.87051126221163
tp1966
a(V002028
p1967
F34.976263285572294
tp1968
a(V000627
p1969
F35.02719495011844
tp1970
a(V002259
p1971
F35.04421104681778
tp1972
a(V600489
p1973
F35.076904206615716
tp1974
a(V002061
p1975
F35.09719133343554
tp1976
a(V002578
p1977
F35.13426427640286
tp1978
a(V002375
p1979
F35.323067327595126
tp1980
a(V000811
p1981
F35.34017442522275
tp1982
a(V600064
p1983
F35.3773794816817
tp1984
a(V002059
p1985
F35.45336474446895
tp1986
a(V601311
p1987
F35.45979954754286
tp1988
a(V600537
p1989
F35.51710637869516
tp1990
a(V600737
p1991
F35.564559468652696
tp1992
a(V600978
p1993
F35.5937066458015
tp1994
a(V600388
p1995
F35.62361699940277
tp1996
a(V002334
p1997
F35.64051402541157
tp1998
a(V002042
p1999
F35.76628555766025
tp2000
a(V002162
p2001
F35.78700765581143
tp2002
a(V000973
p2003
F35.98147064340454
tp2004
a(V000037
p2005
F36.03996394787898
tp2006
a(V601566
p2007
F36.05113891518369
tp2008
a(V600579
p2009
F36.10788616405621
tp2010
a(V002595
p2011
F36.127964960306706
tp2012
a(V000153
p2013
F36.155759978156716
tp2014
a(V600292
p2015
F36.16189327199219
tp2016
a(V002186
p2017
F36.318486436850876
tp2018
a(V000068
p2019
F36.37328883170487
tp2020
a(V300375
p2021
F36.38043941083086
tp2022
a(V600862
p2023
F36.384774228074555
tp2024
a(V600238
p2025
F36.40330738636488
tp2026
a(V600828
p2027
F36.533827778797814
tp2028
a(V600985
p2029
F36.54934077410943
tp2030
a(V600095
p2031
F36.659305691839236
tp2032
a(V600293
p2033
F36.695570112937645
tp2034
a(V600212
p2035
F36.70756173801293
tp2036
a(V300175
p2037
F36.71044825947858
tp2038
a(V300067
p2039
F36.72486375706319
tp2040
a(V300121
p2041
F36.91291970803693
tp2042
a(V001896
p2043
F36.91483935558402
tp2044
a(V600112
p2045
F36.959097079962824
tp2046
a(V601318
p2047
F36.986511289211194
tp2048
a(V600897
p2049
F37.0331072551203
tp2050
a(V600406
p2051
F37.09451260778274
tp2052
a(V000750
p2053
F37.27459321147367
tp2054
a(V000090
p2055
F37.502652655675924
tp2056
a(V300198
p2057
F37.522554462688056
tp2058
a(V600499
p2059
F37.52450532981465
tp2060
a(V600890
p2061
F37.572309528421236
tp2062
a(V002545
p2063
F37.60217470024689
tp2064
a(V600695
p2065
F37.669019498304245
tp2066
a(V300002
p2067
F37.67830198834452
tp2068
a(V600279
p2069
F37.68542957683166
tp2070
a(V002586
p2071
F37.720123290995524
tp2072
a(V300258
p2073
F37.760218809765185
tp2074
a(V600130
p2075
F37.80874651134686
tp2076
a(V603188
p2077
F38.03827232063765
tp2078
a(V600834
p2079
F38.24310953075538
tp2080
a(V002451
p2081
F38.631084574261585
tp2082
a(V600643
p2083
F38.64937436836177
tp2084
a(V600230
p2085
F38.663299197165884
tp2086
a(V600093
p2087
F38.79298477132479
tp2088
a(V600291
p2089
F38.80781041679992
tp2090
a(V002503
p2091
F38.822354739770205
tp2092
a(V002454
p2093
F38.83661141205304
tp2094
a(V300058
p2095
F39.02225029426625
tp2096
a(V000606
p2097
F39.07263245734563
tp2098
a(V000632
p2099
F39.14924372336672
tp2100
a(V600969
p2101
F39.19991187740358
tp2102
a(V000595
p2103
F39.21130693455995
tp2104
a(V600894
p2105
F39.21140312116996
tp2106
a(V000972
p2107
F39.282916711265706
tp2108
a(V600079
p2109
F39.344890408917735
tp2110
a(V603609
p2111
F39.395732576068816
tp2112
a(V002099
p2113
F39.40052183429212
tp2114
a(V002587
p2115
F39.46134019843701
tp2116
a(V600859
p2117
F39.48728442267693
tp2118
a(V002202
p2119
F39.50601952989654
tp2120
a(V300181
p2121
F39.56086937561054
tp2122
a(V002088
p2123
F39.606082531742814
tp2124
a(V000536
p2125
F39.62478821369861
tp2126
a(V600229
p2127
F39.70191723699121
tp2128
a(V600309
p2129
F39.76278465558915
tp2130
a(V600600
p2131
F39.783609899038524
tp2132
a(V600611
p2133
F39.78509141294668
tp2134
a(V000546
p2135
F39.801253900650174
tp2136
a(V600998
p2137
F39.85255430563822
tp2138
a(V002621
p2139
F39.93006892778945
tp2140
a(V600624
p2141
F40.066145365363845
tp2142
a(V002239
p2143
F40.086187284082555
tp2144
a(V600188
p2145
F40.08886304849299
tp2146
a(V600959
p2147
F40.257138868922205
tp2148
a(V600241
p2149
F40.25858551441609
tp2150
a(V601098
p2151
F40.353705656760255
tp2152
a(V300234
p2153
F40.370792842413046
tp2154
a(V600423
p2155
F40.47586346487837
tp2156
a(V002403
p2157
F40.52474461093962
tp2158
a(V300316
p2159
F40.791003001130534
tp2160
a(V600739
p2161
F40.95925473558588
tp2162
a(V000059
p2163
F40.97149546024811
tp2164
a(V600332
p2165
F41.04657798590672
tp2166
a(V002073
p2167
F41.06178551032686
tp2168
a(V300084
p2169
F41.18554006366928
tp2170
a(V600367
p2171
F41.207684660035376
tp2172
a(V600247
p2173
F41.21945194684667
tp2174
a(V002685
p2175
F41.284859636584706
tp2176
a(V002671
p2177
F41.31609687337259
tp2178
a(V000593
p2179
F41.342386969184915
tp2180
a(V600765
p2181
F41.429715071318334
tp2182
a(V000705
p2183
F41.507082723054324
tp2184
a(V600958
p2185
F41.54402304388345
tp2186
a(V300415
p2187
F41.62305607421694
tp2188
a(V000035
p2189
F41.6882247389121
tp2190
a(V000936
p2191
F41.848882655735366
tp2192
a(V603169
p2193
F41.86784315166234
tp2194
a(V002041
p2195
F42.007975199703786
tp2196
a(V002069
p2197
F42.0236091836008
tp2198
a(V601233
p2199
F42.04529981595961
tp2200
a(V600497
p2201
F42.05504814008951
tp2202
a(V600382
p2203
F42.071305642417634
tp2204
a(V601877
p2205
F42.07511959514303
tp2206
a(V000545
p2207
F42.08021205455827
tp2208
a(V300013
p2209
F42.088515769537956
tp2210
a(V000976
p2211
F42.17071763744869
tp2212
a(V600800
p2213
F42.17527144801087
tp2214
a(V002394
p2215
F42.216188658360394
tp2216
a(V000732
p2217
F42.25734904826082
tp2218
a(V600523
p2219
F42.30506862064703
tp2220
a(V600090
p2221
F42.44403145638003
tp2222
a(V600270
p2223
F42.452165644346785
tp2224
a(V600243
p2225
F42.626393893626286
tp2226
a(V600355
p2227
F42.72293371455641
tp2228
a(V000876
p2229
F42.795813321691405
tp2230
a(V601238
p2231
F42.84838593683742
tp2232
a(V002226
p2233
F42.942674331145874
tp2234
a(V600257
p2235
F42.991427557486546
tp2236
a(V600009
p2237
F42.997966406713765
tp2238
a(V002672
p2239
F43.020053289240295
tp2240
a(V600463
p2241
F43.041120798580366
tp2242
a(V300137
p2243
F43.086030221413424
tp2244
a(V600119
p2245
F43.26714893844926
tp2246
a(V002325
p2247
F43.54104751437846
tp2248
a(V002258
p2249
F43.55418270173202
tp2250
a(V002674
p2251
F43.64094378202341
tp2252
a(V002250
p2253
F43.68686050742781
tp2254
a(V002262
p2255
F43.87348922305966
tp2256
a(V000713
p2257
F44.039725015185034
tp2258
a(V002212
p2259
F44.07859852439497
tp2260
a(V000619
p2261
F44.09786439331608
tp2262
a(V002254
p2263
F44.238339305544265
tp2264
a(V000597
p2265
F44.37423401930861
tp2266
a(V600619
p2267
F44.4217369140072
tp2268
a(V300345
p2269
F44.579362339537134
tp2270
a(V600580
p2271
F44.64319362772911
tp2272
a(V600195
p2273
F44.68286767290712
tp2274
a(V300074
p2275
F44.76325097851251
tp2276
a(V000983
p2277
F44.76366480095883
tp2278
a(V002166
p2279
F44.78283928289812
tp2280
a(V002181
p2281
F44.86931516569879
tp2282
a(V300123
p2283
F45.26386975185014
tp2284
a(V002465
p2285
F45.41608114917657
tp2286
a(V000426
p2287
F45.55481229879201
tp2288
a(V002567
p2289
F45.598556430741894
tp2290
a(V002662
p2291
F45.69716104404715
tp2292
a(V000678
p2293
F45.771438172771056
tp2294
a(V002350
p2295
F45.998004831999786
tp2296
a(V600278
p2297
F46.00873099291098
tp2298
a(V000885
p2299
F46.04306568556929
tp2300
a(V600703
p2301
F46.26978223429951
tp2302
a(V600128
p2303
F46.55217401674487
tp2304
a(V000776
p2305
F46.62248335316516
tp2306
a(V000625
p2307
F46.64151973182331
tp2308
a(V002372
p2309
F46.70532783148589
tp2310
a(V600528
p2311
F46.76185433990649
tp2312
a(V002410
p2313
F46.79335634165999
tp2314
a(V600283
p2315
F46.87081479923156
tp2316
a(V600648
p2317
F46.98967229645278
tp2318
a(V600841
p2319
F47.17668538344462
tp2320
a(V600867
p2321
F47.177543126235776
tp2322
a(V000967
p2323
F47.192387794927086
tp2324
a(V600692
p2325
F47.218943611930754
tp2326
a(V002015
p2327
F47.29800863585542
tp2328
a(V600585
p2329
F47.34647059443344
tp2330
a(V600099
p2331
F47.42547251103887
tp2332
a(V300370
p2333
F47.530465566198906
tp2334
a(V002330
p2335
F47.657521921192604
tp2336
a(V600551
p2337
F47.716361577280885
tp2338
a(V002126
p2339
F47.77378752955327
tp2340
a(V600362
p2341
F47.79256918788325
tp2342
a(V600774
p2343
F47.85951761159152
tp2344
a(V601601
p2345
F48.10152313242133
tp2346
a(V002377
p2347
F48.10280875825664
tp2348
a(V600250
p2349
F48.19394834345293
tp2350
a(V600444
p2351
F48.42209684297662
tp2352
a(V600487
p2353
F48.42760166709565
tp2354
a(V002556
p2355
F48.541197401606034
tp2356
a(V300262
p2357
F48.56643773891641
tp2358
a(V002547
p2359
F48.644481139394095
tp2360
a(V600073
p2361
F48.75230564481004
tp2362
a(V002324
p2363
F48.77671427705658
tp2364
a(V600686
p2365
F48.83534189413137
tp2366
a(V002369
p2367
F48.89030603135047
tp2368
a(V300131
p2369
F48.89699655722704
tp2370
a(V002695
p2371
F48.93014855873996
tp2372
a(V600889
p2373
F48.94091664644418
tp2374
a(V300289
p2375
F49.075265071902116
tp2376
a(V600330
p2377
F49.11715412272026
tp2378
a(V600155
p2379
F49.177848861221
tp2380
a(V600072
p2381
F49.22746382058096
tp2382
a(V002214
p2383
F49.23384070913279
tp2384
a(V000716
p2385
F49.294303659682456
tp2386
a(V300106
p2387
F49.30749148261106
tp2388
a(V300128
p2389
F49.35727836717608
tp2390
a(V600620
p2391
F49.3628443305089
tp2392
a(V600831
p2393
F49.41945382808243
tp2394
a(V000799
p2395
F49.42654755340577
tp2396
a(V600651
p2397
F49.591749442218216
tp2398
a(V600037
p2399
F49.6329975046399
tp2400
a(V300054
p2401
F49.72255758017024
tp2402
a(V600289
p2403
F49.80748367328045
tp2404
a(V300192
p2405
F49.98588333528961
tp2406
a(V002026
p2407
F50.08552027359701
tp2408
a(V000928
p2409
F50.157978054198615
tp2410
a(V300243
p2411
F50.201257770055555
tp2412
a(V000550
p2413
F50.22103236044121
tp2414
a(V002552
p2415
F50.29652454242932
tp2416
a(V601567
p2417
F50.29915059441683
tp2418
a(V601015
p2419
F50.36489427671301
tp2420
a(V600101
p2421
F50.370684125605166
tp2422
a(V300112
p2423
F50.37560992309556
tp2424
a(V300200
p2425
F50.39222709778371
tp2426
a(V300092
p2427
F50.51581948068739
tp2428
a(V001696
p2429
F50.52873224170723
tp2430
a(V300138
p2431
F50.603080116675265
tp2432
a(V002528
p2433
F50.76937327282577
tp2434
a(V002603
p2435
F50.825037583069054
tp2436
a(V002526
p2437
F50.864837663384385
tp2438
a(V000613
p2439
F50.95840737163039
tp2440
a(V000910
p2441
F50.98332457192956
tp2442
a(V600629
p2443
F51.189146309589134
tp2444
a(V600075
p2445
F51.278751734236636
tp2446
a(V002115
p2447
F51.57780038237624
tp2448
a(V300120
p2449
F51.63251151688475
tp2450
a(V002340
p2451
F51.695914016467995
tp2452
a(V002600
p2453
F51.766690811661995
tp2454
a(V600960
p2455
F51.82375510237337
tp2456
a(V002294
p2457
F51.82830159574319
tp2458
a(V000511
p2459
F51.999576211592405
tp2460
a(V600857
p2461
F52.021635051286275
tp2462
a(V002009
p2463
F52.202667017501675
tp2464
a(V300334
p2465
F52.2364154014079
tp2466
a(V002328
p2467
F52.34617186970761
tp2468
a(V000989
p2469
F52.354414886133284
tp2470
a(V000679
p2471
F52.416178769395906
tp2472
a(V000581
p2473
F52.42413184233386
tp2474
a(V600590
p2475
F52.67211397020871
tp2476
a(V300146
p2477
F52.69616763681196
tp2478
a(V600191
p2479
F52.706512852658534
tp2480
a(V600851
p2481
F52.78721006850016
tp2482
a(V000856
p2483
F52.88699536524365
tp2484
a(V300309
p2485
F52.89854729373997
tp2486
a(V002408
p2487
F53.002650036080794
tp2488
a(V002659
p2489
F53.02057061611952
tp2490
a(V603126
p2491
F53.12724226343487
tp2492
a(V000663
p2493
F53.2611575451896
tp2494
a(V600360
p2495
F53.400643505391876
tp2496
a(V002614
p2497
F53.425305215232335
tp2498
a(V600649
p2499
F53.43327836265931
tp2500
a(V000703
p2501
F53.44589100344097
tp2502
a(V600746
p2503
F53.452107250826835
tp2504
a(V600160
p2505
F53.47963255969572
tp2506
a(V000755
p2507
F53.510329489359485
tp2508
a(V002367
p2509
F53.653943370966616
tp2510
a(V601788
p2511
F53.81079221215283
tp2512
a(V603558
p2513
F53.878504614357254
tp2514
a(V000519
p2515
F53.998240677498266
tp2516
a(V002376
p2517
F54.08455871689534
tp2518
a(V002381
p2519
F54.08626542620958
tp2520
a(V002571
p2521
F54.110973404189835
tp2522
a(V000060
p2523
F54.18226416085749
tp2524
a(V002098
p2525
F54.18460104779215
tp2526
a(V002071
p2527
F54.24328544046647
tp2528
a(V002177
p2529
F54.524669643696775
tp2530
a(V000029
p2531
F54.66401997250827
tp2532
a(V600260
p2533
F54.67771054292554
tp2534
a(V002574
p2535
F54.738648820046315
tp2536
a(V000534
p2537
F54.82827894917328
tp2538
a(V002155
p2539
F54.90374875572642
tp2540
a(V601777
p2541
F55.33314764148066
tp2542
a(V600662
p2543
F55.61701006539507
tp2544
a(V002653
p2545
F55.64574211265085
tp2546
a(V002331
p2547
F55.68044423042975
tp2548
a(V600303
p2549
F55.756473993250225
tp2550
a(V600701
p2551
F55.819435030707666
tp2552
a(V601100
p2553
F55.84800561121626
tp2554
a(V002017
p2555
F55.88410627006063
tp2556
a(V000722
p2557
F55.971176819646274
tp2558
a(V300194
p2559
F56.010182763989945
tp2560
a(V002579
p2561
F56.074709252345706
tp2562
a(V600975
p2563
F56.31074624953593
tp2564
a(V300139
p2565
F56.394070712083135
tp2566
a(V600864
p2567
F56.41749120814782
tp2568
a(V002683
p2569
F56.62103710477807
tp2570
a(V600378
p2571
F56.645561852310905
tp2572
a(V002097
p2573
F56.68377444409416
tp2574
a(V600566
p2575
F56.784959763704094
tp2576
a(V002443
p2577
F56.8839057919145
tp2578
a(V600775
p2579
F57.000958050520765
tp2580
a(V600714
p2581
F57.03082067522482
tp2582
a(V600714
p2583
F57.03082067522482
tp2584
a(V603818
p2585
F57.293871384669366
tp2586
a(V300126
p2587
F57.37728892071718
tp2588
a(V300159
p2589
F57.38616573522621
tp2590
a(V300029
p2591
F57.422259222674455
tp2592
a(V600421
p2593
F57.45860716101059
tp2594
a(V000530
p2595
F57.56686206754384
tp2596
a(V300322
p2597
F57.583302401248126
tp2598
a(V300315
p2599
F57.75674174983998
tp2600
a(V000878
p2601
F57.911222366275176
tp2602
a(V600156
p2603
F58.16536301248128
tp2604
a(V600097
p2605
F58.191122717576654
tp2606
a(V000576
p2607
F58.25697642206826
tp2608
a(V000812
p2609
F58.258439661275716
tp2610
a(V000760
p2611
F58.36416448938338
tp2612
a(V002333
p2613
F58.373846717659276
tp2614
a(V600111
p2615
F58.53404021187749
tp2616
a(V600165
p2617
F58.537784546653675
tp2618
a(V000504
p2619
F58.61688737214114
tp2620
a(V002363
p2621
F58.74004883473694
tp2622
a(V600962
p2623
F58.761325719398094
tp2624
a(V000609
p2625
F58.85393899621652
tp2626
a(V000960
p2627
F58.90987771223295
tp2628
a(V002023
p2629
F59.0005327750401
tp2630
a(V600535
p2631
F59.15808131767026
tp2632
a(V000561
p2633
F59.36221970195868
tp2634
a(V000520
p2635
F59.38940341640073
tp2636
a(V601038
p2637
F59.434905170323326
tp2638
a(V002051
p2639
F59.46664326547114
tp2640
a(V002156
p2641
F59.56734212026687
tp2642
a(V002604
p2643
F59.69452119722087
tp2644
a(V300278
p2645
F59.74975772866805
tp2646
a(V600781
p2647
F59.878384851595065
tp2648
a(V300195
p2649
F59.93462404866997
tp2650
a(V002096
p2651
F60.079197887222996
tp2652
a(V600167
p2653
F60.2220802181765
tp2654
a(V600735
p2655
F60.32871701724191
tp2656
a(V300004
p2657
F60.38938502119601
tp2658
a(V002550
p2659
F60.401268374713446
tp2660
a(V002245
p2661
F60.61408600644416
tp2662
a(V600012
p2663
F60.68601722884447
tp2664
a(V600206
p2665
F61.132500861353606
tp2666
a(V600302
p2667
F61.226896194074854
tp2668
a(V300177
p2669
F61.32771724374719
tp2670
a(V300119
p2671
F61.348606508290494
tp2672
a(V300373
p2673
F61.666444632939424
tp2674
a(V002361
p2675
F61.69893246631898
tp2676
a(V002513
p2677
F61.851761437875375
tp2678
a(V601688
p2679
F61.86185149343191
tp2680
a(V000797
p2681
F61.871653352382246
tp2682
a(V603008
p2683
F61.91356780253603
tp2684
a(V000591
p2685
F61.930247962016054
tp2686
a(V603166
p2687
F61.97894403758583
tp2688
a(V002286
p2689
F62.19050155779261
tp2690
a(V002296
p2691
F62.24367221177363
tp2692
a(V000821
p2693
F62.287654130646395
tp2694
a(V600288
p2695
F62.29562884202247
tp2696
a(V600152
p2697
F62.378633186915096
tp2698
a(V600568
p2699
F62.576794386012175
tp2700
a(V002476
p2701
F62.69456636812817
tp2702
a(V002101
p2703
F62.89330210686795
tp2704
a(V000951
p2705
F63.018215463366296
tp2706
a(V002191
p2707
F63.144746248033826
tp2708
a(V002173
p2709
F63.29155568708161
tp2710
a(V300103
p2711
F63.33068932036072
tp2712
a(V000785
p2713
F63.44529962191686
tp2714
a(V300170
p2715
F63.469170505679934
tp2716
a(V000728
p2717
F63.54746126705066
tp2718
a(V600370
p2719
F63.70400825798008
tp2720
a(V600976
p2721
F63.74492802179465
tp2722
a(V600379
p2723
F63.75482201107494
tp2724
a(V000895
p2725
F63.82961545351883
tp2726
a(V600315
p2727
F63.84364542832119
tp2728
a(V000058
p2729
F64.08903184960974
tp2730
a(V002553
p2731
F64.3819259177645
tp2732
a(V002014
p2733
F64.56489277316103
tp2734
a(V603000
p2735
F64.6041273878465
tp2736
a(V300325
p2737
F64.70263001516467
tp2738
a(V601199
p2739
F64.82489364233422
tp2740
a(V002093
p2741
F64.90118392138933
tp2742
a(V002270
p2743
F64.97617349872607
tp2744
a(V002607
p2745
F65.073234114402
tp2746
a(V002217
p2747
F65.35129337565408
tp2748
a(V000708
p2749
F65.4709737828253
tp2750
a(V600515
p2751
F65.78506546059005
tp2752
a(V600636
p2753
F65.85306246004657
tp2754
a(V002172
p2755
F66.06419833570531
tp2756
a(V300241
p2757
F66.38169804474089
tp2758
a(V300408
p2759
F66.4780719114194
tp2760
a(V002726
p2761
F66.61406608251355
tp2762
a(V600299
p2763
F66.64619776840165
tp2764
a(V600838
p2765
F66.78861206077042
tp2766
a(V002011
p2767
F66.8381957604242
tp2768
a(V600395
p2769
F67.02951844525505
tp2770
a(V000099
p2771
F67.06981635906781
tp2772
a(V600992
p2773
F67.20120786402839
tp2774
a(V600235
p2775
F67.30333170059055
tp2776
a(V002251
p2777
F67.38764655227871
tp2778
a(V002237
p2779
F67.84520052891159
tp2780
a(V002519
p2781
F68.57192060126208
tp2782
a(V002452
p2783
F68.58848517392492
tp2784
a(V000411
p2785
F68.78858684376966
tp2786
a(V600833
p2787
F69.09967969874597
tp2788
a(V002453
p2789
F69.26984991385982
tp2790
a(V600835
p2791
F69.42736063409261
tp2792
a(V600340
p2793
F69.51928483337436
tp2794
a(V300204
p2795
F69.72767611335425
tp2796
a(V600696
p2797
F69.75917632084823
tp2798
a(V600365
p2799
F69.81184790333425
tp2800
a(V300355
p2801
F69.82536845465816
tp2802
a(V002543
p2803
F69.8563215996804
tp2804
a(V000505
p2805
F69.91406889855543
tp2806
a(V002442
p2807
F69.92167428121847
tp2808
a(V002510
p2809
F70.10990460584412
tp2810
a(V002557
p2811
F70.15680763405157
tp2812
a(V000009
p2813
F70.24774938152694
tp2814
a(V600475
p2815
F70.35373642208259
tp2816
a(V600702
p2817
F70.35755370096304
tp2818
a(V002311
p2819
F70.58159638356138
tp2820
a(V000022
p2821
F70.76791957746299
tp2822
a(V600796
p2823
F70.93565264791583
tp2824
a(V000820
p2825
F70.93960514718852
tp2826
a(V002063
p2827
F70.97831322910481
tp2828
a(V600060
p2829
F71.00371851147501
tp2830
a(V000702
p2831
F71.1463173940227
tp2832
a(V000691
p2833
F71.32431422121947
tp2834
a(V002081
p2835
F71.4389687075737
tp2836
a(V000623
p2837
F71.49973426469167
tp2838
a(V600634
p2839
F71.92863732796195
tp2840
a(V002220
p2841
F71.95773076480467
tp2842
a(V600305
p2843
F71.97422643440419
tp2844
a(V300147
p2845
F72.05553391628163
tp2846
a(V002150
p2847
F72.33564469957686
tp2848
a(V002158
p2849
F72.35766105760106
tp2850
a(V000400
p2851
F72.40119074594223
tp2852
a(V002198
p2853
F72.45051931689603
tp2854
a(V002322
p2855
F72.50335180022543
tp2856
a(V600513
p2857
F72.6281078527585
tp2858
a(V603012
p2859
F72.6504397202108
tp2860
a(V600526
p2861
F72.82368953922223
tp2862
a(V000592
p2863
F73.13850039561702
tp2864
a(V600521
p2865
F73.14684203117193
tp2866
a(V000587
p2867
F73.36213847350895
tp2868
a(V000587
p2869
F73.36213847350895
tp2870
a(V600967
p2871
F73.40124310515853
tp2872
a(V002527
p2873
F73.4416506193668
tp2874
a(V000559
p2875
F73.45176471115671
tp2876
a(V600184
p2877
F73.54589574033918
tp2878
a(V600501
p2879
F73.59928022863006
tp2880
a(V600693
p2881
F73.77907506363583
tp2882
a(V000930
p2883
F73.81554485160923
tp2884
a(V300035
p2885
F73.84834114203417
tp2886
a(V002500
p2887
F73.91773904106643
tp2888
a(V002147
p2889
F74.010956563658
tp2890
a(V002660
p2891
F74.29409908273787
tp2892
a(V600742
p2893
F74.61746047378305
tp2894
a(V600216
p2895
F74.81763072170862
tp2896
a(V002138
p2897
F74.98718146334424
tp2898
a(V600552
p2899
F75.0209057743877
tp2900
a(V300281
p2901
F75.26476808980416
tp2902
a(V002417
p2903
F75.35216065820104
tp2904
a(V300307
p2905
F75.46721504985842
tp2906
a(V300183
p2907
F75.47748944598848
tp2908
a(V000421
p2909
F75.48849250876029
tp2910
a(V002247
p2911
F75.85290100174706
tp2912
a(V000584
p2913
F75.92613467270688
tp2914
a(V600478
p2915
F75.93690895168588
tp2916
a(V603308
p2917
F76.07093702188281
tp2918
a(V603766
p2919
F76.45260619552548
tp2920
a(V002075
p2921
F76.5925429538958
tp2922
a(V600456
p2923
F76.68896175048202
tp2924
a(V000858
p2925
F77.1217971114295
tp2926
a(V002479
p2927
F77.21243479455718
tp2928
a(V002013
p2929
F77.22044705530502
tp2930
a(V300272
p2931
F77.26348901623348
tp2932
a(V600085
p2933
F77.80057582606146
tp2934
a(V002472
p2935
F77.95274245197727
tp2936
a(V300094
p2937
F78.1497950539996
tp2938
a(V603099
p2939
F78.33522062587116
tp2940
a(V300166
p2941
F78.4636533613744
tp2942
a(V002309
p2943
F78.47261628094978
tp2944
a(V000995
p2945
F78.77051022843723
tp2946
a(V600538
p2947
F78.83174994902282
tp2948
a(V603288
p2949
F78.90635022465513
tp2950
a(V300155
p2951
F79.00374939644732
tp2952
a(V600372
p2953
F79.1368043466282
tp2954
a(V300055
p2955
F79.40970190005602
tp2956
a(V000792
p2957
F80.02596776536217
tp2958
a(V600543
p2959
F80.19036525804276
tp2960
a(V000958
p2961
F80.30200506093568
tp2962
a(V600074
p2963
F80.77247534833243
tp2964
a(V002118
p2965
F80.80169847760627
tp2966
a(V000715
p2967
F80.91250149519628
tp2968
a(V603328
p2969
F80.9529276203876
tp2970
a(V002271
p2971
F80.992021029994
tp2972
a(V002252
p2973
F81.01154784386821
tp2974
a(V300205
p2975
F81.13910967773496
tp2976
a(V300167
p2977
F81.4469410999115
tp2978
a(V600242
p2979
F81.45641813615758
tp2980
a(V300217
p2981
F81.45820108494308
tp2982
a(V600804
p2983
F81.46212116965636
tp2984
a(V600405
p2985
F81.52038791125283
tp2986
a(V002137
p2987
F81.68742739184297
tp2988
a(V002047
p2989
F81.92890490903804
tp2990
a(V600615
p2991
F81.9596921100855
tp2992
a(V000158
p2993
F82.38657423397318
tp2994
a(V002559
p2995
F82.40014510002344
tp2996
a(V300402
p2997
F82.40136717632214
tp2998
a(V300233
p2999
F82.62167136557836
tp3000
a(V300293
p3001
F82.65115974582767
tp3002
a(V600560
p3003
F82.69048246724802
tp3004
a(V300040
p3005
F82.97320464548399
tp3006
a(V000662
p3007
F83.17887825914515
tp3008
a(V300005
p3009
F83.2089642278013
tp3010
a(V002520
p3011
F83.21905160691723
tp3012
a(V002248
p3013
F83.48832920944902
tp3014
a(V600486
p3015
F83.54327816271133
tp3016
a(V600371
p3017
F84.09711465901454
tp3018
a(V000889
p3019
F84.18698198066303
tp3020
a(V002728
p3021
F84.27501460508827
tp3022
a(V000980
p3023
F84.33525796236582
tp3024
a(V002459
p3025
F84.4142663969502
tp3026
a(V002243
p3027
F84.4345535690513
tp3028
a(V600176
p3029
F84.59286466508338
tp3030
a(V002692
p3031
F84.59453811982077
tp3032
a(V600061
p3033
F84.725139246101
tp3034
a(V600730
p3035
F85.08521689781213
tp3036
a(V600107
p3037
F85.99239983313763
tp3038
a(V300140
p3039
F86.02138041453192
tp3040
a(V002374
p3041
F86.05693829371346
tp3042
a(V002020
p3043
F86.34444444409856
tp3044
a(V300240
p3045
F86.42539466836992
tp3046
a(V002435
p3047
F86.66858306307823
tp3048
a(V000408
p3049
F86.67227786149608
tp3050
a(V002400
p3051
F86.69599789429346
tp3052
a(V002591
p3053
F86.79203298531586
tp3054
a(V300068
p3055
F86.90553893258645
tp3056
a(V000590
p3057
F86.98905592634513
tp3058
a(V600105
p3059
F87.37217881895855
tp3060
a(V600410
p3061
F87.5647979639782
tp3062
a(V600594
p3063
F87.58549073542736
tp3064
a(V002669
p3065
F87.59436201151394
tp3066
a(V002629
p3067
F87.78690314715367
tp3068
a(V300297
p3069
F87.92797862094918
tp3070
a(V600687
p3071
F88.04437688246344
tp3072
a(V000605
p3073
F88.20787193820233
tp3074
a(V002686
p3075
F88.27192399513153
tp3076
a(V002701
p3077
F88.46031897612887
tp3078
a(V600573
p3079
F88.74215323993198
tp3080
a(V002700
p3081
F88.81827605095451
tp3082
a(V600498
p3083
F89.01908196764947
tp3084
a(V002514
p3085
F89.29671307997214
tp3086
a(V300261
p3087
F89.3929206979104
tp3088
a(V002169
p3089
F90.04255575257267
tp3090
a(V300190
p3091
F90.33667105965984
tp3092
a(V002176
p3093
F90.41865818906534
tp3094
a(V002357
p3095
F90.54867586074224
tp3096
a(V000723
p3097
F90.58205859244944
tp3098
a(V603011
p3099
F90.69154039745742
tp3100
a(V300273
p3101
F90.7790251709711
tp3102
a(V600793
p3103
F90.81997021874076
tp3104
a(V300008
p3105
F90.87627849432222
tp3106
a(V600706
p3107
F90.91886923644353
tp3108
a(V002316
p3109
F90.95392488781224
tp3110
a(V002424
p3111
F91.06769176300732
tp3112
a(V002141
p3113
F91.38423843554826
tp3114
a(V300066
p3115
F91.43493900453744
tp3116
a(V002157
p3117
F91.70316042048476
tp3118
a(V002658
p3119
F91.74056084818925
tp3120
a(V002221
p3121
F91.84289624898263
tp3122
a(V300219
p3123
F92.23292697204644
tp3124
a(V002652
p3125
F92.30469101474941
tp3126
a(V002645
p3127
F92.39123757666721
tp3128
a(V300387
p3129
F92.42474395818112
tp3130
a(V600129
p3131
F92.72390053171932
tp3132
a(V002384
p3133
F92.88249556381635
tp3134
a(V600180
p3135
F93.05287638388326
tp3136
a(V002339
p3137
F93.6853509706393
tp3138
a(V000969
p3139
F93.72983096401032
tp3140
a(V002043
p3141
F93.81032447880104
tp3142
a(V002080
p3143
F93.89941805879727
tp3144
a(V002238
p3145
F93.92830103568535
tp3146
a(V000615
p3147
F94.04001217257023
tp3148
a(V300034
p3149
F94.20495103030983
tp3150
a(V002224
p3151
F94.24048723083214
tp3152
a(V600506
p3153
F94.34025720855315
tp3154
a(V300197
p3155
F94.45098410814762
tp3156
a(V002687
p3157
F94.4748505871509
tp3158
a(V002143
p3159
F94.95702653656835
tp3160
a(V002539
p3161
F95.45033518567696
tp3162
a(V002436
p3163
F95.56391341577596
tp3164
a(V002086
p3165
F95.60199723747806
tp3166
a(V000890
p3167
F95.66469928361352
tp3168
a(V000066
p3169
F95.69887175455746
tp3170
a(V600777
p3171
F95.74229044896576
tp3172
a(V000851
p3173
F95.76291336713486
tp3174
a(V002546
p3175
F95.82006712697446
tp3176
a(V002359
p3177
F95.92159414325072
tp3178
a(V000151
p3179
F95.95374107535365
tp3180
a(V300353
p3181
F96.05196473583723
tp3182
a(V000768
p3183
F96.14814473754171
tp3184
a(V300088
p3185
F96.25302477168667
tp3186
a(V300221
p3187
F96.32051886383258
tp3188
a(V603997
p3189
F96.59631345234725
tp3190
a(V002320
p3191
F96.59789681233495
tp3192
a(V600677
p3193
F97.20304721016745
tp3194
a(V002045
p3195
F97.51448735357374
tp3196
a(V002008
p3197
F97.6512598521796
tp3198
a(V600587
p3199
F97.66405301167944
tp3200
a(V600185
p3201
F97.67446931574695
tp3202
a(V002609
p3203
F98.07344340388254
tp3204
a(V000055
p3205
F98.08796675961688
tp3206
a(V600729
p3207
F98.45986214416656
tp3208
a(V600530
p3209
F98.5224865420326
tp3210
a(V603030
p3211
F98.74557278187844
tp3212
a(V300157
p3213
F98.81831554231691
tp3214
a(V002378
p3215
F98.86537377102124
tp3216
a(V300202
p3217
F98.89569567060029
tp3218
a(V300048
p3219
F99.13568518038372
tp3220
a(V300286
p3221
F99.29921530734707
tp3222
a(V002144
p3223
F99.33069385712861
tp3224
a(V002399
p3225
F99.44875426345267
tp3226
a(V600987
p3227
F99.64305543883697
tp3228
a(V002415
p3229
F99.75061392768154
tp3230
a(V600826
p3231
F100.06941190017669
tp3232
a(V002261
p3233
F100.26253636075919
tp3234
a(V300270
p3235
F100.32169984436028
tp3236
a(V002319
p3237
F100.53381806387716
tp3238
a(V600114
p3239
F100.62403219999683
tp3240
a(V600764
p3241
F100.63375724997833
tp3242
a(V002482
p3243
F100.69777867564385
tp3244
a(V002548
p3245
F100.73266595530225
tp3246
a(V600276
p3247
F100.7929124900251
tp3248
a(V300099
p3249
F101.75313122443322
tp3250
a(V300098
p3251
F102.19373676101495
tp3252
a(V600525
p3253
F102.19769360135804
tp3254
a(V000758
p3255
F102.24000605995207
tp3256
a(V002401
p3257
F102.30157506555793
tp3258
a(V002140
p3259
F102.3710489161797
tp3260
a(V002018
p3261
F102.40658707155453
tp3262
a(V002231
p3263
F102.74800516131147
tp3264
a(V002411
p3265
F103.05263285848996
tp3266
a(V000833
p3267
F103.1731213742419
tp3268
a(V002130
p3269
F103.25081613386264
tp3270
a(V000516
p3271
F103.27262954405725
tp3272
a(V600637
p3273
F103.76060522826894
tp3274
a(V002474
p3275
F104.39553029467044
tp3276
a(V002676
p3277
F104.46548955557918
tp3278
a(V600272
p3279
F104.7339983222537
tp3280
a(V300338
p3281
F104.82247084604144
tp3282
a(V600213
p3283
F105.20174117930429
tp3284
a(V000929
p3285
F105.25231420519144
tp3286
a(V601801
p3287
F105.57577785250086
tp3288
a(V600088
p3289
F105.71582526635778
tp3290
a(V002365
p3291
F105.74918147631156
tp3292
a(V603518
p3293
F105.95086430026696
tp3294
a(V000829
p3295
F106.05580177155935
tp3296
a(V600459
p3297
F106.07712595550507
tp3298
a(V300021
p3299
F106.08016805234992
tp3300
a(V002395
p3301
F106.11280241339882
tp3302
a(V000532
p3303
F106.12469552303143
tp3304
a(V002725
p3305
F106.67713516849203
tp3306
a(V600898
p3307
F106.98720006387546
tp3308
a(V600773
p3309
F107.22590254304254
tp3310
a(V002438
p3311
F107.2985925507497
tp3312
a(V000045
p3313
F107.33227373676533
tp3314
a(V002698
p3315
F107.4157858419858
tp3316
a(V600807
p3317
F107.68660475844254
tp3318
a(V000881
p3319
F107.80819358716754
tp3320
a(V002511
p3321
F107.8517885036567
tp3322
a(V002104
p3323
F107.95118650894352
tp3324
a(V600373
p3325
F108.43292145471305
tp3326
a(V002580
p3327
F108.9899669345074
tp3328
a(V002723
p3329
F109.1424081110161
tp3330
a(V300182
p3331
F109.2996395835495
tp3332
a(V000733
p3333
F109.43259560231809
tp3334
a(V002673
p3335
F110.26351717114532
tp3336
a(V600058
p3337
F110.37786611217878
tp3338
a(V002509
p3339
F110.38798183130437
tp3340
a(V000423
p3341
F110.65648781272048
tp3342
a(V600767
p3343
F110.67152074856567
tp3344
a(V600171
p3345
F110.82249794385704
tp3346
a(V300208
p3347
F110.9677825327636
tp3348
a(V300372
p3349
F111.12690599380196
tp3350
a(V002066
p3351
F111.1846955945913
tp3352
a(V600135
p3353
F111.43895741869251
tp3354
a(V002084
p3355
F111.54594394337616
tp3356
a(V002529
p3357
F111.88343970202779
tp3358
a(V000333
p3359
F111.91201581374985
tp3360
a(V600335
p3361
F112.06940380948146
tp3362
a(V300203
p3363
F112.84980377319022
tp3364
a(V300317
p3365
F113.05576551124341
tp3366
a(V600070
p3367
F113.13164110055776
tp3368
a(V000603
p3369
F113.19667342249352
tp3370
a(V000892
p3371
F113.2027139697832
tp3372
a(V002627
p3373
F113.70257565740673
tp3374
a(V002040
p3375
F113.8023613528789
tp3376
a(V300228
p3377
F113.87321846066456
tp3378
a(V300444
p3379
F114.61130047201969
tp3380
a(V600150
p3381
F114.82078989905216
tp3382
a(V603618
p3383
F114.82899371413521
tp3384
a(V600316
p3385
F115.24131768913195
tp3386
a(V002597
p3387
F115.29118208392956
tp3388
a(V300357
p3389
F115.53138290362338
tp3390
a(V002387
p3391
F115.56974395300755
tp3392
a(V600618
p3393
F115.74090284385053
tp3394
a(V002475
p3395
F115.857985559951
tp3396
a(V600652
p3397
F115.87417780253591
tp3398
a(V300096
p3399
F116.17997246362138
tp3400
a(V000860
p3401
F116.38055932687854
tp3402
a(V300284
p3403
F116.43039451054038
tp3404
a(V002732
p3405
F116.70169493667643
tp3406
a(V300318
p3407
F116.8653692316648
tp3408
a(V600258
p3409
F116.92334159428358
tp3410
a(V000970
p3411
F117.6926432224575
tp3412
a(V002541
p3413
F117.91271263595401
tp3414
a(V601137
p3415
F117.95828593995489
tp3416
a(V002690
p3417
F118.04843153167467
tp3418
a(V002588
p3419
F118.24597218485158
tp3420
a(V000913
p3421
F118.29475713460026
tp3422
a(V000701
p3423
F118.77247315742281
tp3424
a(V000801
p3425
F119.01243544688148
tp3426
a(V300148
p3427
F119.36486759093944
tp3428
a(V600588
p3429
F119.89853109718747
tp3430
a(V002402
p3431
F120.11527700104608
tp3432
a(V300363
p3433
F120.60648729138084
tp3434
a(V300374
p3435
F120.7559634091105
tp3436
a(V002159
p3437
F120.79055677753824
tp3438
a(V002432
p3439
F121.00170730747263
tp3440
a(V000628
p3441
F121.65996971693284
tp3442
a(V002037
p3443
F121.71628613969008
tp3444
a(V300257
p3445
F121.76505204574177
tp3446
a(V600193
p3447
F122.46588483154318
tp3448
a(V600081
p3449
F122.62344597530328
tp3450
a(V002329
p3451
F123.4393009824202
tp3452
a(V002308
p3453
F123.81496694595086
tp3454
a(V600612
p3455
F124.03818296486769
tp3456
a(V002484
p3457
F124.22625384933335
tp3458
a(V300012
p3459
F124.23758573719176
tp3460
a(V600771
p3461
F124.70793840632913
tp3462
a(V600895
p3463
F124.96931199934393
tp3464
a(V002346
p3465
F125.14494056087284
tp3466
a(V002412
p3467
F125.44417055116126
tp3468
a(V603015
p3469
F125.55097521008469
tp3470
a(V000831
p3471
F125.72652408224529
tp3472
a(V300007
p3473
F125.87464659375688
tp3474
a(V002423
p3475
F125.89971542245782
tp3476
a(V300116
p3477
F126.77768910584105
tp3478
a(V002240
p3479
F127.28111932729482
tp3480
a(V600306
p3481
F127.73214863716602
tp3482
a(V000032
p3483
F127.79711477432959
tp3484
a(V000011
p3485
F128.09538570894387
tp3486
a(V600262
p3487
F128.5070243975292
tp3488
a(V000952
p3489
F129.59079142780493
tp3490
a(V000056
p3491
F129.8865784791667
tp3492
a(V600422
p3493
F130.31978172973493
tp3494
a(V600149
p3495
F130.83569422831658
tp3496
a(V002025
p3497
F130.9987620505935
tp3498
a(V300287
p3499
F131.04290584651602
tp3500
a(V000795
p3501
F131.2582886176645
tp3502
a(V600161
p3503
F131.29241170265283
tp3504
a(V600520
p3505
F131.75977894760436
tp3506
a(V002654
p3507
F131.7631834506757
tp3508
a(V300151
p3509
F132.30252000828256
tp3510
a(V002222
p3511
F132.95415678901605
tp3512
a(V002136
p3513
F133.07967349933378
tp3514
a(V002077
p3515
F133.25047035738353
tp3516
a(V600885
p3517
F133.70223207512396
tp3518
a(V300091
p3519
F134.2537254334955
tp3520
a(V300326
p3521
F134.33410937741186
tp3522
a(V002107
p3523
F134.51268603455145
tp3524
a(V002440
p3525
F134.63917021309035
tp3526
a(V002679
p3527
F134.8153065017178
tp3528
a(V002677
p3529
F134.84391576748965
tp3530
a(V002428
p3531
F135.05069388005984
tp3532
a(V000670
p3533
F136.0382469090416
tp3534
a(V600728
p3535
F136.27694113921268
tp3536
a(V002414
p3537
F136.43684722898465
tp3538
a(V000050
p3539
F138.0392854889254
tp3540
a(V002467
p3541
F138.05759234872772
tp3542
a(V600345
p3543
F138.29774275745123
tp3544
a(V000798
p3545
F138.59289050311045
tp3546
a(V600685
p3547
F138.9737595012545
tp3548
a(V002057
p3549
F139.21012959054536
tp3550
a(V000998
p3551
F139.36485380669285
tp3552
a(V002448
p3553
F139.603196184736
tp3554
a(V600605
p3555
F139.754733867016
tp3556
a(V300047
p3557
F139.75995270033306
tp3558
a(V002388
p3559
F140.49313323428765
tp3560
a(V300101
p3561
F140.58404481176873
tp3562
a(V002102
p3563
F141.09219158264014
tp3564
a(V300174
p3565
F141.1432082488817
tp3566
a(V300030
p3567
F142.04935369817687
tp3568
a(V000558
p3569
F142.05619839770503
tp3570
a(V002298
p3571
F142.15971769249194
tp3572
a(V002310
p3573
F142.7349874355069
tp3574
a(V002360
p3575
F143.22967233244768
tp3576
a(V600200
p3577
F143.49458324292326
tp3578
a(V603355
p3579
F143.6093571041166
tp3580
a(V002006
p3581
F143.7127975968619
tp3582
a(V002123
p3583
F143.91418685130125
tp3584
a(V601198
p3585
F144.4648697759248
tp3586
a(V600718
p3587
F145.2761161074123
tp3588
a(V000838
p3589
F145.38818479269796
tp3590
a(V000403
p3591
F145.63614070340225
tp3592
a(V600493
p3593
F146.4011178425448
tp3594
a(V002149
p3595
F146.62769591304502
tp3596
a(V000538
p3597
F146.6520140342595
tp3598
a(V300041
p3599
F146.72895226095034
tp3600
a(V002193
p3601
F147.0241001311525
tp3602
a(V000988
p3603
F147.51182952267797
tp3604
a(V600633
p3605
F147.78617271436877
tp3606
a(V002581
p3607
F147.7994473812175
tp3608
a(V000902
p3609
F147.9060091065592
tp3610
a(V600148
p3611
F148.06828915808225
tp3612
a(V300388
p3613
F148.26207382081736
tp3614
a(V000586
p3615
F148.7229579222555
tp3616
a(V300271
p3617
F148.85723552063618
tp3618
a(V002232
p3619
F149.70196142688891
tp3620
a(V603001
p3621
F149.9172326692204
tp3622
a(V300268
p3623
F150.40848334326245
tp3624
a(V002275
p3625
F150.77022713532398
tp3626
a(V600753
p3627
F150.7820275430345
tp3628
a(V300267
p3629
F151.6950249042463
tp3630
a(V300056
p3631
F151.8531268659878
tp3632
a(V300249
p3633
F152.11124680266465
tp3634
a(V002120
p3635
F152.39412699112287
tp3636
a(V002485
p3637
F152.63090668635846
tp3638
a(V000622
p3639
F154.11009250772526
tp3640
a(V002022
p3641
F155.05218396558442
tp3642
a(V600883
p3643
F155.6063192410119
tp3644
a(V002210
p3645
F156.31136065646888
tp3646
a(V300076
p3647
F156.54661642562326
tp3648
a(V603003
p3649
F156.9897381804477
tp3650
a(V300305
p3651
F157.47084415485006
tp3652
a(V000711
p3653
F157.87913523859825
tp3654
a(V002182
p3655
F157.97166583355923
tp3656
a(V300062
p3657
F158.08366758512844
tp3658
a(V300127
p3659
F158.54103362282927
tp3660
a(V002358
p3661
F158.5606907707417
tp3662
a(V002341
p3663
F159.73261706099555
tp3664
a(V300165
p3665
F160.31632335141484
tp3666
a(V300207
p3667
F160.4091667971709
tp3668
a(V603222
p3669
F160.45626799424315
tp3670
a(V002356
p3671
F160.54272287496454
tp3672
a(V600201
p3673
F161.69216877789077
tp3674
a(V300247
p3675
F161.7076556722101
tp3676
a(V603009
p3677
F161.80452607897743
tp3678
a(V600198
p3679
F162.78649606594124
tp3680
a(V300300
p3681
F163.04618756615258
tp3682
a(V002171
p3683
F163.17769071461572
tp3684
a(V300199
p3685
F163.19643459894488
tp3686
a(V002655
p3687
F163.19744175377753
tp3688
a(V600366
p3689
F163.81957569496035
tp3690
a(V601336
p3691
F164.05766405614474
tp3692
a(V600630
p3693
F164.9258973722736
tp3694
a(V600420
p3695
F165.20937018580145
tp3696
a(V300077
p3697
F165.3514745627984
tp3698
a(V002616
p3699
F165.49239204805554
tp3700
a(V300412
p3701
F165.71518380343142
tp3702
a(V600435
p3703
F165.77409251893317
tp3704
a(V002125
p3705
F166.15807926289247
tp3706
a(V300161
p3707
F166.83758949743097
tp3708
a(V002670
p3709
F167.21854241153596
tp3710
a(V000911
p3711
F167.35641392935582
tp3712
a(V300211
p3713
F168.8430465629341
tp3714
a(V002299
p3715
F169.21866654055938
tp3716
a(V000695
p3717
F169.39825429355867
tp3718
a(V300001
p3719
F169.46080121319272
tp3720
a(V002161
p3721
F169.59932636019275
tp3722
a(V300382
p3723
F170.25082270362753
tp3724
a(V002031
p3725
F170.3419239324143
tp3726
a(V603828
p3727
F170.4153521278339
tp3728
a(V603111
p3729
F172.58317693141342
tp3730
a(V600234
p3731
F173.30640331772807
tp3732
a(V600549
p3733
F173.56752134556552
tp3734
a(V002437
p3735
F173.79147808123045
tp3736
a(V300143
p3737
F174.0352761423605
tp3738
a(V300153
p3739
F174.26935147324477
tp3740
a(V002108
p3741
F174.4385386112591
tp3742
a(V000712
p3743
F175.6587120049953
tp3744
a(V300263
p3745
F175.7914456474051
tp3746
a(V002035
p3747
F175.80704908292816
tp3748
a(V002426
p3749
F176.2040858270458
tp3750
a(V601888
p3751
F176.23287542907894
tp3752
a(V300229
p3753
F176.5095104766762
tp3754
a(V600054
p3755
F176.58138728924234
tp3756
a(V300346
p3757
F177.5802920613385
tp3758
a(V300460
p3759
F177.71404988558228
tp3760
a(V000657
p3761
F178.0116536197717
tp3762
a(V002536
p3763
F178.2751136191017
tp3764
a(V000987
p3765
F178.3350785758622
tp3766
a(V002168
p3767
F179.05919959464
tp3768
a(V002409
p3769
F179.2908052782096
tp3770
a(V002351
p3771
F180.07953468589167
tp3772
a(V300306
p3773
F180.71683099126182
tp3774
a(V600610
p3775
F180.78144301925144
tp3776
a(V600893
p3777
F181.77390169861556
tp3778
a(V002708
p3779
F182.32815914650055
tp3780
a(V300171
p3781
F182.93980537345232
tp3782
a(V603698
p3783
F183.0038788475765
tp3784
a(V002131
p3785
F183.169830024158
tp3786
a(V002636
p3787
F185.608357815365
tp3788
a(V000566
p3789
F185.81389805374485
tp3790
a(V000156
p3791
F186.09553949038798
tp3792
a(V300260
p3793
F186.27915758468086
tp3794
a(V600671
p3795
F187.41599403438076
tp3796
a(V002637
p3797
F188.43369964813152
tp3798
a(V600118
p3799
F188.50420223161876
tp3800
a(V000777
p3801
F189.0881405427087
tp3802
a(V600386
p3803
F189.0904717385294
tp3804
a(V000596
p3805
F189.530496363014
tp3806
a(V002441
p3807
F189.6497049457906
tp3808
a(V603806
p3809
F189.75154255638364
tp3810
a(V300276
p3811
F190.02520370283162
tp3812
a(V300032
p3813
F190.35440639146051
tp3814
a(V600689
p3815
F190.59220553511406
tp3816
a(V002393
p3817
F190.60464779192068
tp3818
a(V002477
p3819
F190.9571042741876
tp3820
a(V300280
p3821
F190.99566930879115
tp3822
a(V002705
p3823
F191.29541680428252
tp3824
a(V300206
p3825
F191.5587753302539
tp3826
a(V603369
p3827
F191.6244651493051
tp3828
a(V002082
p3829
F192.053912502224
tp3830
a(V002734
p3831
F192.16553879898794
tp3832
a(V600502
p3833
F193.43295568065855
tp3834
a(V000062
p3835
F193.48638347173295
tp3836
a(V002748
p3837
F193.8128447513378
tp3838
a(V600343
p3839
F193.82128700117104
tp3840
a(V603168
p3841
F193.88998202757142
tp3842
a(V002551
p3843
F193.99871487303315
tp3844
a(V000815
p3845
F194.5880588042204
tp3846
a(V000887
p3847
F195.1057766769073
tp3848
a(V000410
p3849
F195.35685418960267
tp3850
a(V002684
p3851
F195.36725998514495
tp3852
a(V002622
p3853
F195.53500981747825
tp3854
a(V300018
p3855
F195.5562789425256
tp3856
a(V600647
p3857
F195.79452351450934
tp3858
a(V000034
p3859
F196.235201213394
tp3860
a(V300342
p3861
F197.82273828963093
tp3862
a(V000869
p3863
F199.28938646952392
tp3864
a(V300051
p3865
F200.28772347478937
tp3866
a(V603601
p3867
F200.83682111837777
tp3868
a(V600986
p3869
F200.86658696252042
tp3870
a(V300050
p3871
F201.3207630573144
tp3872
a(V002737
p3873
F201.67740627396185
tp3874
a(V600599
p3875
F202.18087311671937
tp3876
a(V300269
p3877
F202.31588395583418
tp3878
a(V002494
p3879
F202.4901974172209
tp3880
a(V300231
p3881
F202.59882989473792
tp3882
a(V002139
p3883
F203.62847226159883
tp3884
a(V002127
p3885
F204.3222509392827
tp3886
a(V002626
p3887
F205.40897663977043
tp3888
a(V002152
p3889
F205.47498214311005
tp3890
a(V603789
p3891
F205.88599574994436
tp3892
a(V002724
p3893
F205.9776669923513
tp3894
a(V600715
p3895
F206.4685500529925
tp3896
a(V300347
p3897
F206.5067971888205
tp3898
a(V002722
p3899
F206.6317667948444
tp3900
a(V300196
p3901
F207.1548063658492
tp3902
a(V000418
p3903
F207.97879847229146
tp3904
a(V300118
p3905
F208.01906081328895
tp3906
a(V300044
p3907
F208.0891757214593
tp3908
a(V300145
p3909
F208.81322864200996
tp3910
a(V300360
p3911
F209.00702848261764
tp3912
a(V300224
p3913
F210.11268552027724
tp3914
a(V300256
p3915
F210.65661698966719
tp3916
a(V002632
p3917
F210.6935293699793
tp3918
a(V002456
p3919
F210.87520061882248
tp3920
a(V300230
p3921
F210.88495596395822
tp3922
a(V300407
p3923
F211.14378351683217
tp3924
a(V002085
p3925
F211.59891427630694
tp3926
a(V002665
p3927
F212.78504367881655
tp3928
a(V000669
p3929
F212.83041488004847
tp3930
a(V603025
p3931
F212.85390175802405
tp3932
a(V002256
p3933
F213.29467981682328
tp3934
a(V300015
p3935
F213.5252486805747
tp3936
a(V000803
p3937
F213.70392976659983
tp3938
a(V300144
p3939
F214.97739034923686
tp3940
a(V600980
p3941
F215.06596303987524
tp3942
a(V300011
p3943
F216.3437841389701
tp3944
a(V002200
p3945
F216.64901922839195
tp3946
a(V002038
p3947
F217.0452601481611
tp3948
a(V002313
p3949
F217.8642419275961
tp3950
a(V603306
p3951
F218.3170810020473
tp3952
a(V300351
p3953
F219.3173372217925
tp3954
a(V000666
p3955
F219.44373592834546
tp3956
a(V000802
p3957
F219.65039243093244
tp3958
a(V600876
p3959
F219.81708966378105
tp3960
a(V000078
p3961
F219.96106537696244
tp3962
a(V002562
p3963
F220.1827143861896
tp3964
a(V002421
p3965
F220.49005705653468
tp3966
a(V002208
p3967
F220.6309729192063
tp3968
a(V300149
p3969
F220.92222020367606
tp3970
a(V000014
p3971
F221.2562402331312
tp3972
a(V000738
p3973
F221.58061124501654
tp3974
a(V600763
p3975
F221.5809043921105
tp3976
a(V000948
p3977
F221.60716413207672
tp3978
a(V300371
p3979
F221.80894125937417
tp3980
a(V002242
p3981
F222.68404608321234
tp3982
a(V000065
p3983
F222.72402738759348
tp3984
a(V002148
p3985
F223.09755785229746
tp3986
a(V002711
p3987
F223.54911619895063
tp3988
a(V002522
p3989
F223.76203253964812
tp3990
a(V002119
p3991
F223.97124393188582
tp3992
a(V002197
p3993
F224.49601302588002
tp3994
a(V002228
p3995
F224.80538554781353
tp3996
a(V002425
p3997
F225.63762827157396
tp3998
a(V603017
p3999
F225.85427952806566
tp4000
a(V300385
p4001
F226.27293402082282
tp4002
a(V002236
p4003
F226.87349903982937
tp4004
a(V000502
p4005
F226.92636107666888
tp4006
a(V600682
p4007
F227.03309897447997
tp4008
a(V300254
p4009
F227.27296322876822
tp4010
a(V600654
p4011
F227.31399634307868
tp4012
a(V002602
p4013
F227.4112404080083
tp4014
a(V300049
p4015
F227.53113006528622
tp4016
a(V603338
p4017
F227.61955663848184
tp4018
a(V300031
p4019
F227.69319861183067
tp4020
a(V300232
p4021
F228.24372217022577
tp4022
a(V002295
p4023
F228.365496908393
tp4024
a(V300349
p4025
F228.5398276142002
tp4026
a(V300439
p4027
F229.47863409430957
tp4028
a(V600476
p4029
F231.63788641100604
tp4030
a(V600750
p4031
F232.2655541433941
tp4032
a(V300070
p4033
F232.55946653603107
tp4034
a(V002290
p4035
F232.71964726131282
tp4036
a(V603555
p4037
F232.88726663698347
tp4038
a(V002134
p4039
F233.31437341794197
tp4040
a(V002326
p4041
F233.31965173848462
tp4042
a(V002121
p4043
F233.4014387080743
tp4044
a(V300133
p4045
F234.5660314041589
tp4046
a(V300406
p4047
F235.4291050876479
tp4048
a(V600055
p4049
F236.20645624874345
tp4050
a(V300291
p4051
F236.45986312946835
tp4052
a(V000668
p4053
F236.63411627556636
tp4054
a(V002606
p4055
F237.30225147749732
tp4056
a(V002743
p4057
F237.71194338050552
tp4058
a(V002512
p4059
F237.72472013994334
tp4060
a(V002094
p4061
F238.55281687427606
tp4062
a(V002688
p4063
F238.70844871097583
tp4064
a(V603028
p4065
F239.4427307738995
tp4066
a(V002223
p4067
F240.3059186049322
tp4068
a(V300027
p4069
F241.4873841678441
tp4070
a(V600522
p4071
F241.69983340807784
tp4072
a(V002364
p4073
F241.9630357967781
tp4074
a(V300403
p4075
F243.1009824551835
tp4076
a(V000963
p4077
F243.26583618660047
tp4078
a(V000700
p4079
F244.08623086971576
tp4080
a(V600850
p4081
F245.24106212486203
tp4082
a(V002750
p4083
F246.88697882427365
tp4084
a(V002048
p4085
F248.1600835051681
tp4086
a(V000985
p4087
F249.51115999577036
tp4088
a(V300274
p4089
F251.30784302666245
tp4090
a(V002117
p4091
F251.45929297811793
tp4092
a(V603919
p4093
F251.4832559075564
tp4094
a(V600836
p4095
F252.14018711233493
tp4096
a(V600146
p4097
F252.80631586179035
tp4098
a(V002396
p4099
F253.20301724050057
tp4100
a(V002444
p4101
F253.40074473805282
tp4102
a(V002036
p4103
F254.09428971754133
tp4104
a(V002371
p4105
F254.83168287282703
tp4106
a(V300354
p4107
F255.09147175975406
tp4108
a(V002184
p4109
F255.27459323062672
tp4110
a(V300341
p4111
F255.77838313542355
tp4112
a(V002196
p4113
F256.52045164493023
tp4114
a(V300400
p4115
F257.06242315163536
tp4116
a(V600678
p4117
F257.08255238267674
tp4118
a(V600436
p4119
F257.2643326087789
tp4120
a(V603939
p4121
F258.81465752248556
tp4122
a(V002355
p4123
F258.96652025036036
tp4124
a(V002111
p4125
F259.60768803713006
tp4126
a(V002731
p4127
F259.64317547316904
tp4128
a(V002576
p4129
F260.42553261822775
tp4130
a(V002304
p4131
F260.63737140759633
tp4132
a(V300350
p4133
F260.8206803440028
tp4134
a(V300075
p4135
F261.29433406376654
tp4136
a(V600536
p4137
F261.4411516743474
tp4138
a(V002241
p4139
F261.5811555242201
tp4140
a(V300245
p4141
F262.11327024240893
tp4142
a(V600785
p4143
F262.2968821279009
tp4144
a(V000676
p4145
F262.3160747799486
tp4146
a(V002124
p4147
F263.0503536597049
tp4148
a(V000971
p4149
F263.4348889823002
tp4150
a(V300296
p4151
F264.3946535448326
tp4152
a(V600559
p4153
F264.39965307729506
tp4154
a(V002446
p4155
F264.9821464729475
tp4156
a(V300383
p4157
F265.5058692514521
tp4158
a(V002276
p4159
F266.06864741202907
tp4160
a(V002638
p4161
F267.01335197077975
tp4162
a(V603199
p4163
F267.1166997227395
tp4164
a(V300114
p4165
F268.60116654685703
tp4166
a(V002370
p4167
F268.77790799928084
tp4168
a(V002058
p4169
F268.9545563341709
tp4170
a(V000977
p4171
F270.0432911734536
tp4172
a(V600338
p4173
F270.14410492651524
tp4174
a(V600563
p4175
F270.2517532316323
tp4176
a(V300178
p4177
F270.56872912933756
tp4178
a(V002752
p4179
F270.60360886590746
tp4180
a(V002462
p4181
F270.70879856389575
tp4182
a(V603869
p4183
F271.21918790382256
tp4184
a(V002151
p4185
F271.25439950139065
tp4186
a(V300264
p4187
F271.46911922202776
tp4188
a(V300065
p4189
F271.47619753403694
tp4190
a(V300474
p4191
F271.89108684241984
tp4192
a(V002001
p4193
F272.97859154859486
tp4194
a(V300455
p4195
F273.44237087355356
tp4196
a(V002664
p4197
F274.2959486137412
tp4198
a(V002568
p4199
F274.3376778801924
tp4200
a(V002382
p4201
F274.58576426976316
tp4202
a(V002002
p4203
F276.7981692378822
tp4204
a(V603118
p4205
F277.01588613563996
tp4206
a(V002427
p4207
F277.32005030360193
tp4208
a(V000070
p4209
F278.9408246457595
tp4210
a(V002113
p4211
F279.3411373193821
tp4212
a(V603010
p4213
F279.41470117867595
tp4214
a(V300319
p4215
F279.4419187140701
tp4216
a(V002195
p4217
F279.5319736846512
tp4218
a(V300122
p4219
F279.81167480994077
tp4220
a(V600666
p4221
F280.3150685952754
tp4222
a(V601021
p4223
F282.8890884480636
tp4224
a(V300367
p4225
F282.8999906530358
tp4226
a(V300365
p4227
F283.2385567225634
tp4228
a(V002353
p4229
F286.16031631641624
tp4230
a(V300411
p4231
F290.67980431358006
tp4232
a(V603005
p4233
F292.40539657601505
tp4234
a(V300156
p4235
F293.0220702219844
tp4236
a(V002733
p4237
F293.36446258685885
tp4238
a(V300235
p4239
F293.6777627129875
tp4240
a(V002179
p4241
F295.4397772682513
tp4242
a(V300304
p4243
F295.6457804916314
tp4244
a(V002740
p4245
F296.1131435016407
tp4246
a(V002593
p4247
F296.39907346429845
tp4248
a(V300395
p4249
F296.6719775896578
tp4250
a(V600855
p4251
F297.2957793896422
tp4252
a(V002145
p4253
F297.65966261143456
tp4254
a(V000697
p4255
F298.43581467249334
tp4256
a(V002362
p4257
F299.6878583288988
tp4258
a(V002007
p4259
F299.8883482836392
tp4260
a(V002589
p4261
F301.62914286833217
tp4262
a(V002445
p4263
F302.76981272765795
tp4264
a(V002617
p4265
F302.8354862823447
tp4266
a(V002617
p4267
F302.8354862823447
tp4268
a(V603315
p4269
F303.05457991078015
tp4270
a(V000687
p4271
F303.10422943446713
tp4272
a(V000748
p4273
F303.2756192690535
tp4274
a(V603020
p4275
F303.37038358589894
tp4276
a(V300124
p4277
F303.517276840945
tp4278
a(V000957
p4279
F303.68435658790344
tp4280
a(V000710
p4281
F304.03258147755065
tp4282
a(V002205
p4283
F304.1444607186796
tp4284
a(V002053
p4285
F306.01639344612676
tp4286
a(V000762
p4287
F307.27097252031086
tp4288
a(V600116
p4289
F308.1170361532765
tp4290
a(V300117
p4291
F308.3556792224583
tp4292
a(V300052
p4293
F309.0108311401736
tp4294
a(V300213
p4295
F310.4334749687098
tp4296
a(V300275
p4297
F313.3077379061769
tp4298
a(V601222
p4299
F315.2318021472077
tp4300
a(V300312
p4301
F320.50429797789815
tp4302
a(V600211
p4303
F320.6409102041452
tp4304
a(V300252
p4305
F320.76366742321824
tp4306
a(V300168
p4307
F324.2329129912924
tp4308
a(V300085
p4309
F324.6211736074814
tp4310
a(V300223
p4311
F324.8609139894219
tp4312
a(V603309
p4313
F324.9291862026045
tp4314
a(V300115
p4315
F326.0617807204826
tp4316
a(V002091
p4317
F326.43277486810507
tp4318
a(V002213
p4319
F328.508339290568
tp4320
a(V300314
p4321
F329.7531249548848
tp4322
a(V000810
p4323
F330.0021168442453
tp4324
a(V300010
p4325
F330.97377094460467
tp4326
a(V300324
p4327
F332.83291695548183
tp4328
a(V000019
p4329
F334.93291982794454
tp4330
a(V300282
p4331
F335.19370781946856
tp4332
a(V002745
p4333
F336.0847200173886
tp4334
a(V000996
p4335
F338.09755780485625
tp4336
a(V300061
p4337
F338.200100010002
tp4338
a(V600623
p4339
F338.790134102073
tp4340
a(V002738
p4341
F339.13959396255456
tp4342
a(V002746
p4343
F339.5027750518318
tp4344
a(V000020
p4345
F343.1195575914838
tp4346
a(V300024
p4347
F344.62058725429694
tp4348
a(V000681
p4349
F344.9557076766629
tp4350
a(V002450
p4351
F345.38298687139667
tp4352
a(V300442
p4353
F346.12676227386015
tp4354
a(V002468
p4355
F346.7007072697839
tp4356
a(V002623
p4357
F346.88616191650334
tp4358
a(V002418
p4359
F347.33784468489654
tp4360
a(V300393
p4361
F351.0180512630115
tp4362
a(V000513
p4363
F353.5601658039322
tp4364
a(V300266
p4365
F354.3803264621132
tp4366
a(V300042
p4367
F355.1033338329635
tp4368
a(V002338
p4369
F355.84057382193555
tp4370
a(V300392
p4371
F355.84318244441243
tp4372
a(V002715
p4373
F355.9195008495814
tp4374
a(V300378
p4375
F356.2489920112406
tp4376
a(V300212
p4377
F356.3306153651089
tp4378
a(V002183
p4379
F356.67403426274564
tp4380
a(V002280
p4381
F357.4456504385765
tp4382
a(V300253
p4383
F358.3816357134072
tp4384
a(V300333
p4385
F359.1136033656399
tp4386
a(V300089
p4387
F361.1095314841958
tp4388
a(V300003
p4389
F362.1011969392318
tp4390
a(V002592
p4391
F364.27533084697643
tp4392
a(V002289
p4393
F365.06327377488304
tp4394
a(V300414
p4395
F365.08667561523646
tp4396
a(V300277
p4397
F366.24718111315656
tp4398
a(V002753
p4399
F366.43844905798613
tp4400
a(V600756
p4401
F367.2377487514467
tp4402
a(V000779
p4403
F368.4859963799339
tp4404
a(V600482
p4405
F368.7012786252363
tp4406
a(V600884
p4407
F369.1735768233482
tp4408
a(V000048
p4409
F369.3928812588371
tp4410
a(V300134
p4411
F369.98815092053877
tp4412
a(V600038
p4413
F370.2727086118417
tp4414
a(V002596
p4415
F370.5797990716615
tp4416
a(V002742
p4417
F370.67531527904725
tp4418
a(V300422
p4419
F371.42961256157884
tp4420
a(V002741
p4421
F371.8636812602503
tp4422
a(V002631
p4423
F371.92407004550756
tp4424
a(V600694
p4425
F372.6083277199512
tp4426
a(V603567
p4427
F376.92120054792576
tp4428
a(V002530
p4429
F377.4043327272876
tp4430
a(V300072
p4431
F378.9593265123349
tp4432
a(V300453
p4433
F379.1808837527553
tp4434
a(V600892
p4435
F380.19853299211957
tp4436
a(V000567
p4437
F381.0813774741788
tp4438
a(V002090
p4439
F383.08543036713957
tp4440
a(V002537
p4441
F383.7548565366861
tp4442
a(V000673
p4443
F383.8386814910884
tp4444
a(V300425
p4445
F384.26410457077185
tp4446
a(V600137
p4447
F385.8022378585772
tp4448
a(V300136
p4449
F386.3572305645632
tp4450
a(V600562
p4451
F392.81583514907965
tp4452
a(V300421
p4453
F393.8100557074406
tp4454
a(V300339
p4455
F394.12755622853814
tp4456
a(V300191
p4457
F396.6779211768106
tp4458
a(V002284
p4459
F397.71910460706766
tp4460
a(V600547
p4461
F397.91324751080623
tp4462
a(V300028
p4463
F398.84667619844754
tp4464
a(V600604
p4465
F399.0660892783882
tp4466
a(V600083
p4467
F399.0969043180763
tp4468
a(V300295
p4469
F399.13807172953096
tp4470
a(V002235
p4471
F400.056111160008
tp4472
a(V603158
p4473
F401.2954535520635
tp4474
a(V300016
p4475
F403.53194751766955
tp4476
a(V002584
p4477
F404.3107117246355
tp4478
a(V002380
p4479
F404.8061007426614
tp4480
a(V300358
p4481
F406.88941395671833
tp4482
a(V300227
p4483
F408.44540434089987
tp4484
a(V002755
p4485
F410.5886591747057
tp4486
a(V603599
p4487
F411.4016725789284
tp4488
a(V002620
p4489
F412.91138849874903
tp4490
a(V300313
p4491
F413.1328353713225
tp4492
a(V002056
p4493
F414.5538607516048
tp4494
a(V002373
p4495
F414.6556575507483
tp4496
a(V600845
p4497
F417.12749209323664
tp4498
a(V300188
p4499
F418.95016444496446
tp4500
a(V002756
p4501
F421.48533779629804
tp4502
a(V002582
p4503
F421.8903640700773
tp4504
a(V300376
p4505
F423.5399671527688
tp4506
a(V002649
p4507
F425.9372594648555
tp4508
a(V002234
p4509
F427.68429271227376
tp4510
a(V002713
p4511
F428.1599309343026
tp4512
a(V000150
p4513
F428.58888808318255
tp4514
a(V002366
p4515
F431.97444752850714
tp4516
a(V600697
p4517
F436.6034993861092
tp4518
a(V000909
p4519
F438.7050249415007
tp4520
a(V300078
p4521
F438.825777941711
tp4522
a(V603456
p4523
F440.43467959363517
tp4524
a(V300279
p4525
F443.4492900320465
tp4526
a(V300009
p4527
F444.3398492691424
tp4528
a(V002260
p4529
F444.3935374348052
tp4530
a(V300398
p4531
F445.66026332816756
tp4532
a(V300369
p4533
F450.2969376726312
tp4534
a(V600391
p4535
F450.97513843650336
tp4536
a(V300248
p4537
F453.48098381975603
tp4538
a(V002504
p4539
F455.3122508528737
tp4540
a(V300310
p4541
F456.0583349735297
tp4542
a(V002227
p4543
F457.0255965803941
tp4544
a(V002473
p4545
F457.19122388901536
tp4546
a(V002702
p4547
F458.7571452355035
tp4548
a(V603021
p4549
F462.32550358226314
tp4550
a(V300130
p4551
F467.1500496260664
tp4552
a(V000503
p4553
F467.5049491924835
tp4554
a(V000839
p4555
F468.56668758332324
tp4556
a(V300390
p4557
F468.90351707601917
tp4558
a(V300246
p4559
F471.4234503540523
tp4560
a(V300176
p4561
F472.3153828947331
tp4562
a(V002633
p4563
F472.56616001429467
tp4564
a(V600452
p4565
F472.84971180405427
tp4566
a(V002681
p4567
F474.10762102746264
tp4568
a(V603027
p4569
F474.3518098771557
tp4570
a(V600754
p4571
F474.4989488112354
tp4572
a(V300059
p4573
F476.94630011175343
tp4574
a(V300236
p4575
F479.48877713636836
tp4576
a(V300162
p4577
F482.7940317721416
tp4578
a(V002656
p4579
F483.9249267069353
tp4580
a(V300396
p4581
F486.2055562667677
tp4582
a(V000915
p4583
F495.2697073095866
tp4584
a(V002190
p4585
F500.2409401038818
tp4586
a(V603861
p4587
F502.98783176841954
tp4588
a(V002189
p4589
F503.1317243307159
tp4590
a(V300069
p4591
F504.40702603797075
tp4592
a(V300209
p4593
F508.00925018834806
tp4594
a(V000901
p4595
F510.29575706249074
tp4596
a(V002034
p4597
F511.2467661886454
tp4598
a(V600593
p4599
F511.7905127519653
tp4600
a(V603088
p4601
F511.889853011621
tp4602
a(V600298
p4603
F512.76125309209
tp4604
a(V600733
p4605
F516.4919848094756
tp4606
a(V603368
p4607
F520.861993573293
tp4608
a(V300437
p4609
F521.7557995999746
tp4610
a(V002383
p4611
F523.2660140887724
tp4612
a(V603898
p4613
F524.5383048707014
tp4614
a(V002368
p4615
F526.2099674800547
tp4616
a(V300413
p4617
F526.7171107094971
tp4618
a(V300336
p4619
F526.8533272586131
tp4620
a(V600233
p4621
F526.8883242291321
tp4622
a(V002027
p4623
F533.9160561060628
tp4624
a(V300430
p4625
F535.8503397359343
tp4626
a(V002416
p4627
F539.7013450046926
tp4628
a(V601020
p4629
F540.1633077603607
tp4630
a(V601689
p4631
F542.1934282802299
tp4632
a(V000819
p4633
F545.1316038343257
tp4634
a(V300418
p4635
F547.5668469350124
tp4636
a(V300424
p4637
F551.5095170979693
tp4638
a(V600053
p4639
F554.2173880932447
tp4640
a(V300023
p4641
F556.8709738769707
tp4642
a(V600446
p4643
F557.0544501425853
tp4644
a(V300401
p4645
F557.7861628025926
tp4646
a(V002496
p4647
F557.8872600084504
tp4648
a(V002719
p4649
F562.1312229565806
tp4650
a(V002273
p4651
F562.9826172799811
tp4652
a(V600645
p4653
F564.1578700827682
tp4654
a(V300014
p4655
F564.3524781165137
tp4656
a(V002680
p4657
F564.597643674543
tp4658
a(V002488
p4659
F564.9978572984612
tp4660
a(V002640
p4661
F565.1190122319156
tp4662
a(V002292
p4663
F584.8569882432843
tp4664
a(V603006
p4665
F594.5093533822
tp4666
a(V603018
p4667
F595.7968313377384
tp4668
a(V002229
p4669
F595.9692631692084
tp4670
a(V600650
p4671
F601.0615986507112
tp4672
a(V600699
p4673
F604.85461592811
tp4674
a(V300389
p4675
F606.0315751467981
tp4676
a(V002114
p4677
F608.0739853660174
tp4678
a(V002757
p4679
F608.5880529451977
tp4680
a(V002431
p4681
F611.3296813764771
tp4682
a(V300352
p4683
F624.7698826147292
tp4684
a(V603788
p4685
F626.0527742423534
tp4686
a(V002074
p4687
F629.1499650986806
tp4688
a(V000826
p4689
F635.9390753227824
tp4690
a(V002032
p4691
F637.6153648925343
tp4692
a(V300445
p4693
F639.2683121183952
tp4694
a(V002335
p4695
F640.4666353799875
tp4696
a(V300461
p4697
F642.8132749960623
tp4698
a(V002343
p4699
F644.6505432565431
tp4700
a(V002030
p4701
F650.7636868293591
tp4702
a(V300222
p4703
F655.3699533763444
tp4704
a(V300093
p4705
F657.8063694088527
tp4706
a(V002544
p4707
F661.8603279210355
tp4708
a(V002707
p4709
F662.0461327631605
tp4710
a(V002727
p4711
F664.3604779531954
tp4712
a(V002458
p4713
F671.2782830812115
tp4714
a(V300238
p4715
F676.6712156587918
tp4716
a(V603686
p4717
F677.881118390051
tp4718
a(V002706
p4719
F680.5157828402901
tp4720
a(V002572
p4721
F685.31029376446
tp4722
a(V002667
p4723
F686.9839002360346
tp4724
a(V002718
p4725
F687.9183877613415
tp4726
a(V002518
p4727
F702.7744128874414
tp4728
a(V603588
p4729
F704.350370431963
tp4730
a(V002747
p4731
F706.4350028732086
tp4732
a(V002268
p4733
F708.6874194477867
tp4734
a(V300381
p4735
F710.4782585379893
tp4736
a(V002287
p4737
F714.8083117593444
tp4738
a(V002577
p4739
F715.2938098554906
tp4740
a(V002508
p4741
F720.1987981386369
tp4742
a(V600271
p4743
F740.6051567399921
tp4744
a(V600419
p4745
F764.997602176462
tp4746
a(V300416
p4747
F766.1830827605028
tp4748
a(V300288
p4749
F769.5373325592207
tp4750
a(V600455
p4751
F769.9107593429698
tp4752
a(V603703
p4753
F771.9512150579975
tp4754
a(V000526
p4755
F773.3365630798633
tp4756
a(V603883
p4757
F774.1130589326472
tp4758
a(V300356
p4759
F777.1207233437734
tp4760
a(V002635
p4761
F784.7080629630977
tp4762
a(V002019
p4763
F790.0786562061265
tp4764
a(V603678
p4765
F795.012691951035
tp4766
a(V300397
p4767
F799.5076993990856
tp4768
a(V002624
p4769
F802.4998642313088
tp4770
a(V300399
p4771
F809.6217241608971
tp4772
a(V600136
p4773
F823.4698852873922
tp4774
a(V000049
p4775
F832.729406118096
tp4776
a(V002790
p4777
F837.9821396398534
tp4778
a(V002049
p4779
F838.199008464401
tp4780
a(V601799
p4781
F851.4155688740951
tp4782
a(V002730
p4783
F851.8945509544498
tp4784
a(V603019
p4785
F852.8770943474943
tp4786
a(V002615
p4787
F853.1578302179146
tp4788
a(V300311
p4789
F854.8139891826245
tp4790
a(V002517
p4791
F888.011273097204
tp4792
a(V300006
p4793
F889.5595621540838
tp4794
a(V300457
p4795
F897.8245845364838
tp4796
a(V002594
p4797
F901.585589934103
tp4798
a(V300242
p4799
F909.8451539786889
tp4800
a(V300348
p4801
F911.3790776494822
tp4802
a(V603998
p4803
F931.6655789016662
tp4804
a(V002281
p4805
F945.2572974488398
tp4806
a(V000028
p4807
F947.2580953257174
tp4808
a(V002661
p4809
F949.6180461665124
tp4810
a(V300216
p4811
F954.1195846042283
tp4812
a(V002174
p4813
F955.2615560935114
tp4814
a(V300404
p4815
F955.5403855418314
tp4816
a(V300036
p4817
F956.3396638303503
tp4818
a(V300187
p4819
F972.4877127315441
tp4820
a(V300420
p4821
F972.5779296374405
tp4822
a(V300083
p4823
F973.3678728109636
tp4824
a(V600680
p4825
F976.4992289293846
tp4826
a(V300017
p4827
F980.8777060732158
tp4828
a(V002560
p4829
F984.5882864607888
tp4830
a(V603808
p4831
F1024.509401294744
tp4832
a(V600570
p4833
F1039.6242099259282
tp4834
a(V300294
p4835
F1044.331334299802
tp4836
a(V002758
p4837
F1045.0238508539687
tp4838
a(V300380
p4839
F1055.8118276033335
tp4840
a(V603798
p4841
F1060.7457215131005
tp4842
a(V300386
p4843
F1067.5987666057338
tp4844
a(V300433
p4845
F1067.86140480745
tp4846
a(V000023
p4847
F1080.5983079695127
tp4848
a(V300436
p4849
F1093.2386603733316
tp4850
a(V002590
p4851
F1100.2841327796518
tp4852
a(V002188
p4853
F1113.9700821443673
tp4854
a(V300250
p4855
F1126.7525260255384
tp4856
a(V002642
p4857
F1126.8592913206555
tp4858
a(V300327
p4859
F1133.8747880895019
tp4860
a(V300141
p4861
F1156.3171338790594
tp4862
a(V603600
p4863
F1199.428382086836
tp4864
a(V000938
p4865
F1207.050910037537
tp4866
a(V002055
p4867
F1227.1480588716306
tp4868
a(V002279
p4869
F1261.4576100741697
tp4870
a(V300097
p4871
F1278.285440564428
tp4872
a(V002618
p4873
F1288.8630142748639
tp4874
a(V300459
p4875
F1292.43197573617
tp4876
a(V603988
p4877
F1293.222684475314
tp4878
a(V300100
p4879
F1316.4332907779233
tp4880
a(V300440
p4881
F1324.979850878696
tp4882
a(V002175
p4883
F1330.3971867183989
tp4884
a(V300368
p4885
F1363.5511522862978
tp4886
a(V300384
p4887
F1373.10148960133
tp4888
a(V600259
p4889
F1375.1354651790682
tp4890
a(V300409
p4891
F1386.356052115152
tp4892
a(V002095
p4893
F1400.3008518176705
tp4894
a(V002413
p4895
F1431.5387482552078
tp4896
a(V300446
p4897
F1433.4499114363273
tp4898
a(V603520
p4899
F1461.3985630228021
tp4900
a(V300468
p4901
F1468.0387705823075
tp4902
a(V002657
p4903
F1472.367683139752
tp4904
a(V300244
p4905
F1483.5969755539688
tp4906
a(V002668
p4907
F1486.5611248587832
tp4908
a(V002714
p4909
F1513.7452254478662
tp4910
a(V300427
p4911
F1553.963595071208
tp4912
a(V300463
p4913
F1609.9856607969566
tp4914
a(V002791
p4915
F1680.19789626325
tp4916
a(V002192
p4917
F1703.766535092666
tp4918
a(V300073
p4919
F1706.2960719625783
tp4920
a(V002315
p4921
F1709.749150024788
tp4922
a(V002643
p4923
F1717.4248185235926
tp4924
a(V000661
p4925
F1734.4208783216711
tp4926
a(V002749
p4927
F1756.236386345903
tp4928
a(V000018
p4929
F1759.5930191879293
tp4930
a(V300037
p4931
F1760.6765533320859
tp4932
a(V000025
p4933
F1763.1415577129123
tp4934
a(V300456
p4935
F1789.0131188385617
tp4936
a(V300447
p4937
F1801.1128568771298
tp4938
a(V300302
p4939
F1811.8765695399682
tp4940
a(V603636
p4941
F1830.694089022744
tp4942
a(V300505
p4943
F1838.1092709994919
tp4944
a(V002789
p4945
F1855.2700392477007
tp4946
a(V300467
p4947
F1858.5846489303606
tp4948
a(V600990
p4949
F1923.1313308047206
tp4950
a(V300417
p4951
F1939.6579172641218
tp4952
a(V300458
p4953
F2006.0830268750217
tp4954
a(V300503
p4955
F2019.6663678057598
tp4956
a(V603729
p4957
F2029.9227266220453
tp4958
a(V002464
p4959
F2038.541091135537
tp4960
a(V002323
p4961
F2186.307408421065
tp4962
a(V300448
p4963
F2206.1996214455835
tp4964
a(V300109
p4965
F2209.361030408357
tp4966
a(V300506
p4967
F2234.8604101658725
tp4968
a(V300434
p4969
F2353.6677176931216
tp4970
a(V300359
p4971
F2367.48134259138
tp4972
a(V002729
p4973
F2380.7231447253885
tp4974
a(V300160
p4975
F2475.529031317357
tp4976
a(V002634
p4977
F2495.260878671636
tp4978
a(V002253
p4979
F2547.1796123561235
tp4980
a(V002601
p4981
F2638.228662303765
tp4982
a(V002619
p4983
F2695.807719934413
tp4984
a(V000626
p4985
F2697.955374768483
tp4986
a(V300081
p4987
F2736.305238685131
tp4988
a(V300502
p4989
F3021.1069223823797
tp4990
a(V002625
p4991
F3025.6875099330114
tp4992
a(V300377
p4993
F3061.9247953124186
tp4994
a(V300321
p4995
F3062.259966405242
tp4996
a(V300452
p4997
F3074.2005412455133
tp4998
a(V002751
p4999
F3082.90113115975
tp5000
a(V300033
p5001
F3102.330751619384
tp5002
a(V002460
p5003
F3161.7184951687796
tp5004
a(V300394
p5005
F3575.350311683613
tp5006
a(V300435
p5007
F3605.4198067400325
tp5008
a(V002153
p5009
F3692.8474914550834
tp5010
a(V002558
p5011
F3789.8931974388665
tp5012
a(V300379
p5013
F3829.7932050594
tp5014
a(V300431
p5015
F3925.8093522893223
tp5016
a(V300343
p5017
F4146.155778798639
tp5018
a(V300364
p5019
F4176.414765005861
tp5020
a(V300449
p5021
F4354.603143094569
tp5022
a(V300429
p5023
F4607.257638907141
tp5024
a(V300113
p5025
F4721.527350085209
tp5026
a(V002792
p5027
F5090.216160174789
tp5028
a(V300443
p5029
F5671.174839841381
tp5030
a(V300466
p5031
F5772.785563005256
tp5032
a(V600519
p5033
F5915.355545777622
tp5034
a(V300438
p5035
F7406.6870148025355
tp5036
a(V300451
p5037
F9855.950786449359
tp5038
a(V002407
p5039
F10542.867361359476
tp5040
a(V002709
p5041
F14279.148918602263
tp5042
a(V300484
p5043
F15681.407073171744
tp5044
a(V002466
p5045
F24387.098479309065
tp5046
a(V300419
p5047
F26575.009347823125
tp5048
a.